
 Start         Length     Name                   Class
 0002:00000000 000137BB2H .text                  CODE
 0003:00000000 0000148B1H .rdata                 DATA
 0004:00000000 0000005FCH .data                  DATA
 0005:00000000 0000001B4H .rsrc                  DATA


  Address         Publics by Value

 0001:00000000       mkplan
 0001:00000083       loc_10001083
 0001:0000010F       loc_1000110F
 0001:00000120       _fftwf_mkapiplan
 0001:0000016B       loc_1000116B
 0001:000001CA       loc_100011CA
 0001:000001D5       loc_100011D5
 0001:000001E4       loc_100011E4
 0001:000001F4       loc_100011F4
 0001:00000204       loc_10001204
 0001:00000208       loc_10001208
 0001:0000022D       loc_1000122D
 0001:00000239       loc_10001239
 0001:0000023C       loc_1000123C
 0001:00000263       loc_10001263
 0001:00000267       loc_10001267
 0001:000002AA       loc_100012AA
 0001:000002C0       loc_100012C0
 0001:000002C8       loc_100012C8
 0001:00000325       loc_10001325
 0001:00000368       loc_10001368
 0001:00000382       loc_10001382
 0001:00000390       _fftwf_destroy_plan
 0001:000003B7       loc_100013B7
 0001:000003D4       loc_100013D4
 0001:000003E6       loc_100013E6
 0001:000003F1       loc_100013F1
 0001:00000400       _fftwf_configure_planner
 0001:00000425       loc_10001425
 0001:0000043D       loc_1000143D
 0001:00000450       _fftwf_execute_dft_c2r
 0001:00000490       _fftwf_execute_dft_r2c
 0001:000004D0       _fftwf_execute_dft
 0001:000004F9       loc_100014F9
 0001:00000520       _fftwf_execute_r2r
 0001:00000540       _fftwf_execute_split_dft_c2r
 0001:00000570       _fftwf_execute_split_dft_r2c
 0001:000005A0       _fftwf_execute_split_dft
 0001:000005D0       _fftwf_execute
 0001:000005F0       _fftwf_export_wisdom_to_file
 0001:0000061F       loc_1000161F
 0001:00000638       loc_10001638
 0001:00000650       _fftwf_export_wisdom_to_filename
 0001:0000066F       loc_1000166F
 0001:00000692       loc_10001692
 0001:000006A0       putchr_cnt
 0001:000006B0       mkprinter_cnt
 0001:00000702       loc_10001702
 0001:0000072E       loc_1000172E
 0001:00000740       putchr_str
 0001:00000760       mkprinter_str
 0001:000007B2       loc_100017B2
 0001:000007DE       loc_100017DE
 0001:000007F0       _fftwf_export_wisdom_to_string
 0001:0000080C       loc_1000180C
 0001:00000838       loc_10001838
 0001:00000878       loc_10001878
 0001:00000885       loc_10001885
 0001:00000890       putchr_generic
 0001:000008B0       _fftwf_export_wisdom
 0001:00000909       loc_10001909
 0001:0000094F       loc_1000194F
 0001:00000974       loc_10001974
 0001:00000984       loc_10001984
 0001:000009A0       _fftwf_flops
 0001:000009C4       loc_100019C4
 0001:00000A3F       loc_10001A3F
 0001:00000A50       _fftwf_estimate_cost
 0001:00000A71       loc_10001A71
 0001:00000AA9       loc_10001AA9
 0001:00000AB0       _fftwf_cost
 0001:00000AC0       _fftwf_forget_wisdom
 0001:00000ADD       loc_10001ADD
 0001:00000AF0       _fftwf_import_system_wisdom
 0001:00000B00       getchr_file
 0001:00000B4D       loc_10001B4D
 0001:00000B60       mkscanner_file
 0001:00000BB8       loc_10001BB8
 0001:00000BED       loc_10001BED
 0001:00000C00       _fftwf_import_wisdom_from_file
 0001:00000C30       loc_10001C30
 0001:00000C4F       loc_10001C4F
 0001:00000C60       _fftwf_import_wisdom_from_filename
 0001:00000C7F       loc_10001C7F
 0001:00000C98       loc_10001C98
 0001:00000CA0       getchr_str
 0001:00000CB4       loc_10001CB4
 0001:00000CC0       mkscanner_str
 0001:00000D15       loc_10001D15
 0001:00000D3B       loc_10001D3B
 0001:00000D50       _fftwf_import_wisdom_from_string
 0001:00000D80       loc_10001D80
 0001:00000D9F       loc_10001D9F
 0001:00000DB0       getchr_generic
 0001:00000DD0       _fftwf_import_wisdom
 0001:00000E28       loc_10001E28
 0001:00000E60       loc_10001E60
 0001:00000E8A       loc_10001E8A
 0001:00000EA0       _fftwf_malloc
 0001:00000EBB       loc_10001EBB
 0001:00000ED0       _fftwf_ifree
 0001:00000EE7       loc_10001EE7
 0001:00000EF0       _fftwf_alloc_real
 0001:00000F0F       loc_10001F0F
 0001:00000F20       _fftwf_alloc_complex
 0001:00000F3F       loc_10001F3F
 0001:00000F50       _fftwf_map_r2r_kind
 0001:00000F72       loc_10001F72
 0001:00000F81       $LN11
 0001:00000F88       $LN10
 0001:00000F8F       $LN9
 0001:00000F96       $LN8
 0001:00000F9D       $LN7
 0001:00000FA4       $LN6
 0001:00000FAB       $LN5
 0001:00000FB2       $LN4
 0001:00000FB9       $LN3
 0001:00000FC0       $LN2
 0001:00000FC7       $LN1
 0001:00000FC9       loc_10001FC9
 0001:00000FD2       loc_10001FD2
 0001:00000FD8       off_10001FD8
 0001:00001010       timelimit_to_flags
 0001:0000103D       loc_1000203D
 0001:00001068       loc_10002068
 0001:00001076       loc_10002076
 0001:00001078       loc_10002078
 0001:0000107C       loc_1000207C
 0001:00001080       _fftwf_mapflags
 0001:0000130E       loc_1000230E
 0001:0000131A       loc_1000231A
 0001:00001321       loc_10002321
 0001:0000133A       loc_1000233A
 0001:00001344       loc_10002344
 0001:00001353       loc_10002353
 0001:00001363       loc_10002363
 0001:00001374       loc_10002374
 0001:00001383       loc_10002383
 0001:00001396       loc_10002396
 0001:000013A3       loc_100023A3
 0001:000013B4       loc_100023B4
 0001:000013C0       loc_100023C0
 0001:000013D0       loc_100023D0
 0001:000013DF       loc_100023DF
 0001:000013E9       loc_100023E9
 0001:000013F4       loc_100023F4
 0001:00001403       loc_10002403
 0001:00001413       loc_10002413
 0001:00001423       loc_10002423
 0001:00001433       loc_10002433
 0001:00001443       loc_10002443
 0001:00001453       loc_10002453
 0001:000014C0       myputchr
 0001:000014F4       loc_100024F4
 0001:00001500       mycleanup
 0001:00001540       _fftwf_mkprinter_file
 0001:00001598       loc_10002598
 0001:000015D5       loc_100025D5
 0001:000015E0       _fftwf_mktensor_iodims64
 0001:00001610       loc_10002610
 0001:00001635       loc_10002635
 0001:00001640       _fftwf_mktensor_rowmajor
 0001:00001696       loc_10002696
 0001:000016BF       loc_100026BF
 0001:000016D0       _fftwf_plan_dft_1d
 0001:000016D8       loc_100026D8
 0001:00001700       loc_10002700
 0001:00001706       loc_10002706
 0001:00001711       loc_10002711
 0001:0000172C       loc_1000272C
 0001:00001739       loc_10002739
 0001:00001746       loc_10002746
 0001:0000174E       loc_1000274E
 0001:0000175B       loc_1000275B
 0001:00001763       loc_10002763
 0001:0000176A       loc_1000276A
 0001:00001771       loc_10002771
 0001:000017C4       loc_100027C4
 0001:00001810       loc_10002810
 0001:00001833       loc_10002833
 0001:00001840       _fftwf_plan_dft_2d
 0001:00001855       loc_10002855
 0001:0000187D       loc_1000287D
 0001:00001884       loc_10002884
 0001:00001892       loc_10002892
 0001:000018AD       loc_100028AD
 0001:000018BA       loc_100028BA
 0001:000018C7       loc_100028C7
 0001:000018CF       loc_100028CF
 0001:000018DC       loc_100028DC
 0001:000018E4       loc_100028E4
 0001:000018EE       loc_100028EE
 0001:000018F5       loc_100028F5
 0001:0000195B       loc_1000295B
 0001:00001980       _fftwf_plan_dft_3d
 0001:000019B2       loc_100029B2
 0001:000019D3       loc_100029D3
 0001:000019E5       loc_100029E5
 0001:000019F0       loc_100029F0
 0001:00001A08       loc_10002A08
 0001:00001A15       loc_10002A15
 0001:00001A22       loc_10002A22
 0001:00001A2A       loc_10002A2A
 0001:00001A37       loc_10002A37
 0001:00001A3F       loc_10002A3F
 0001:00001A49       loc_10002A49
 0001:00001A50       loc_10002A50
 0001:00001ACF       loc_10002ACF
 0001:00001B00       _fftwf_plan_dft_c2r_1d
 0001:00001B10       loc_10002B10
 0001:00001B41       loc_10002B41
 0001:00001B5C       loc_10002B5C
 0001:00001B69       loc_10002B69
 0001:00001B76       loc_10002B76
 0001:00001B7E       loc_10002B7E
 0001:00001B89       loc_10002B89
 0001:00001B90       loc_10002B90
 0001:00001BBC       loc_10002BBC
 0001:00001C23       loc_10002C23
 0001:00001C54       loc_10002C54
 0001:00001C5A       loc_10002C5A
 0001:00001C65       loc_10002C65
 0001:00001C74       loc_10002C74
 0001:00001CA0       loc_10002CA0
 0001:00001CD2       loc_10002CD2
 0001:00001CE0       _fftwf_plan_dft_c2r_2d
 0001:00001D00       loc_10002D00
 0001:00001D2E       loc_10002D2E
 0001:00001D49       loc_10002D49
 0001:00001D56       loc_10002D56
 0001:00001D63       loc_10002D63
 0001:00001D6B       loc_10002D6B
 0001:00001D78       loc_10002D78
 0001:00001D80       loc_10002D80
 0001:00001D90       loc_10002D90
 0001:00001D96       loc_10002D96
 0001:00001DBB       loc_10002DBB
 0001:00001E3B       loc_10002E3B
 0001:00001E6C       loc_10002E6C
 0001:00001E72       loc_10002E72
 0001:00001EA1       loc_10002EA1
 0001:00001EB0       _fftwf_plan_dft_c2r_3d
 0001:00001EE1       loc_10002EE1
 0001:00001F04       loc_10002F04
 0001:00001F1F       loc_10002F1F
 0001:00001F2C       loc_10002F2C
 0001:00001F39       loc_10002F39
 0001:00001F41       loc_10002F41
 0001:00001F4E       loc_10002F4E
 0001:00001F56       loc_10002F56
 0001:00001F66       loc_10002F66
 0001:00001F77       loc_10002F77
 0001:00001FA2       loc_10002FA2
 0001:00002034       loc_10003034
 0001:00002047       loc_10003047
 0001:00002078       loc_10003078
 0001:0000207E       loc_1000307E
 0001:000020AD       loc_100030AD
 0001:000020C0       _fftwf_plan_dft_c2r
 0001:000020F0       _fftwf_plan_dft_r2c_1d
 0001:00002100       loc_10003100
 0001:0000213F       loc_1000313F
 0001:0000214C       loc_1000314C
 0001:00002159       loc_10003159
 0001:00002161       loc_10003161
 0001:0000216D       loc_1000316D
 0001:00002174       loc_10003174
 0001:000021B4       loc_100031B4
 0001:00002205       loc_10003205
 0001:00002236       loc_10003236
 0001:0000223C       loc_1000323C
 0001:00002247       loc_10003247
 0001:00002259       loc_10003259
 0001:00002286       loc_10003286
 0001:0000228C       loc_1000328C
 0001:000022B5       loc_100032B5
 0001:000022D0       _fftwf_plan_dft_r2c_2d
 0001:000022E4       loc_100032E4
 0001:00002321       loc_10003321
 0001:0000232E       loc_1000332E
 0001:0000233B       loc_1000333B
 0001:00002343       loc_10003343
 0001:00002350       loc_10003350
 0001:00002358       loc_10003358
 0001:00002387       loc_10003387
 0001:0000238D       loc_1000338D
 0001:000023A7       loc_100033A7
 0001:0000240F       loc_1000340F
 0001:00002440       loc_10003440
 0001:00002446       loc_10003446
 0001:0000246F       loc_1000346F
 0001:00002490       _fftwf_plan_dft_r2c_3d
 0001:000024C2       loc_100034C2
 0001:000024F6       loc_100034F6
 0001:00002503       loc_10003503
 0001:00002510       loc_10003510
 0001:00002518       loc_10003518
 0001:00002525       loc_10003525
 0001:0000252D       loc_1000352D
 0001:00002564       loc_10003564
 0001:00002576       loc_10003576
 0001:00002594       loc_10003594
 0001:00002614       loc_10003614
 0001:00002645       loc_10003645
 0001:0000264B       loc_1000364B
 0001:00002674       loc_10003674
 0001:00002690       _fftwf_plan_dft_r2c
 0001:000026C0       _fftwf_plan_dft
 0001:00002700       _fftwf_plan_guru64_dft_r2c
 0001:00002725       loc_10003725
 0001:00002736       loc_10003736
 0001:00002751       loc_10003751
 0001:00002762       loc_10003762
 0001:00002783       loc_10003783
 0001:00002790       loc_10003790
 0001:0000279D       loc_1000379D
 0001:000027A5       loc_100037A5
 0001:000027AF       loc_100037AF
 0001:000027B6       loc_100037B6
 0001:000027E3       loc_100037E3
 0001:000027EA       loc_100037EA
 0001:000027FC       loc_100037FC
 0001:00002825       loc_10003825
 0001:00002850       _fftwf_plan_guru_dft
 0001:00002870       loc_10003870
 0001:0000287D       loc_1000387D
 0001:00002895       loc_10003895
 0001:000028A2       loc_100038A2
 0001:000028BB       loc_100038BB
 0001:000028C2       loc_100038C2
 0001:000028D0       loc_100038D0
 0001:000028EB       loc_100038EB
 0001:000028F8       loc_100038F8
 0001:00002905       loc_10003905
 0001:0000290D       loc_1000390D
 0001:0000291A       loc_1000391A
 0001:00002922       loc_10003922
 0001:0000292C       loc_1000392C
 0001:00002933       loc_10003933
 0001:00002980       loc_10003980
 0001:00002991       loc_10003991
 0001:000029B0       _fftwf_plan_guru_r2r
 0001:000029D6       loc_100039D6
 0001:000029E7       loc_100039E7
 0001:00002A03       loc_10003A03
 0001:00002A14       loc_10003A14
 0001:00002A43       loc_10003A43
 0001:00002A50       loc_10003A50
 0001:00002A5B       loc_10003A5B
 0001:00002A62       loc_10003A62
 0001:00002AAE       loc_10003AAE
 0001:00002AB6       loc_10003AB6
 0001:00002ABC       loc_10003ABC
 0001:00002AC9       loc_10003AC9
 0001:00002AEC       loc_10003AEC
 0001:00002B00       _fftwf_plan_guru_split_dft_r2c
 0001:00002B25       loc_10003B25
 0001:00002B36       loc_10003B36
 0001:00002B51       loc_10003B51
 0001:00002B62       loc_10003B62
 0001:00002B82       loc_10003B82
 0001:00002B8F       loc_10003B8F
 0001:00002B9F       loc_10003B9F
 0001:00002BA7       loc_10003BA7
 0001:00002BB1       loc_10003BB1
 0001:00002BB8       loc_10003BB8
 0001:00002BE5       loc_10003BE5
 0001:00002BEC       loc_10003BEC
 0001:00002BFE       loc_10003BFE
 0001:00002C27       loc_10003C27
 0001:00002C50       _fftwf_plan_guru64_split_dft
 0001:00002C77       loc_10003C77
 0001:00002C88       loc_10003C88
 0001:00002CA4       loc_10003CA4
 0001:00002CB5       loc_10003CB5
 0001:00002CE0       loc_10003CE0
 0001:00002CE7       loc_10003CE7
 0001:00002D02       loc_10003D02
 0001:00002D0F       loc_10003D0F
 0001:00002D1C       loc_10003D1C
 0001:00002D24       loc_10003D24
 0001:00002D31       loc_10003D31
 0001:00002D39       loc_10003D39
 0001:00002D43       loc_10003D43
 0001:00002D4A       loc_10003D4A
 0001:00002D97       loc_10003D97
 0001:00002DA8       loc_10003DA8
 0001:00002DC1       loc_10003DC1
 0001:00002DD0       _fftwf_plan_guru64_dft_c2r
 0001:00002DF7       loc_10003DF7
 0001:00002E08       loc_10003E08
 0001:00002E24       loc_10003E24
 0001:00002E35       loc_10003E35
 0001:00002E48       loc_10003E48
 0001:00002E63       loc_10003E63
 0001:00002E70       loc_10003E70
 0001:00002E7D       loc_10003E7D
 0001:00002E85       loc_10003E85
 0001:00002E8C       loc_10003E8C
 0001:00002E93       loc_10003E93
 0001:00002EC3       loc_10003EC3
 0001:00002ECA       loc_10003ECA
 0001:00002EDA       loc_10003EDA
 0001:00002F03       loc_10003F03
 0001:00002F30       _fftwf_plan_guru_split_dft_c2r
 0001:00002F57       loc_10003F57
 0001:00002F68       loc_10003F68
 0001:00002F84       loc_10003F84
 0001:00002F95       loc_10003F95
 0001:00002FA5       loc_10003FA5
 0001:00002FC3       loc_10003FC3
 0001:00002FD0       loc_10003FD0
 0001:00002FDD       loc_10003FDD
 0001:00002FE5       loc_10003FE5
 0001:00002FEC       loc_10003FEC
 0001:00002FF3       loc_10003FF3
 0001:00003023       loc_10004023
 0001:0000302A       loc_1000402A
 0001:0000303A       loc_1000403A
 0001:00003063       loc_10004063
 0001:00003090       _fftwf_plan_many_dft_c2r
 0001:000030C0       loc_100040C0
 0001:000030D2       loc_100040D2
 0001:000030EF       loc_100040EF
 0001:0000310A       loc_1000410A
 0001:00003117       loc_10004117
 0001:00003124       loc_10004124
 0001:0000312C       loc_1000412C
 0001:00003139       loc_10004139
 0001:00003141       loc_10004141
 0001:0000315D       loc_1000415D
 0001:00003164       loc_10004164
 0001:0000319A       loc_1000419A
 0001:000031DF       loc_100041DF
 0001:0000322B       loc_1000422B
 0001:0000325B       loc_1000425B
 0001:00003261       loc_10004261
 0001:00003289       loc_10004289
 0001:00003299       loc_10004299
 0001:000032B0       _fftwf_plan_many_dft_r2c
 0001:000032E2       loc_100042E2
 0001:000032F1       loc_100042F1
 0001:0000331E       loc_1000431E
 0001:0000332B       loc_1000432B
 0001:00003338       loc_10004338
 0001:00003340       loc_10004340
 0001:0000334D       loc_1000434D
 0001:00003355       loc_10004355
 0001:0000339B       loc_1000439B
 0001:000033B6       loc_100043B6
 0001:000033BE       loc_100043BE
 0001:000033EE       loc_100043EE
 0001:0000342D       loc_1000442D
 0001:00003442       loc_10004442
 0001:00003472       loc_10004472
 0001:00003478       loc_10004478
 0001:000034A0       loc_100044A0
 0001:000034B0       loc_100044B0
 0001:000034C0       _fftwf_plan_many_dft
 0001:000034E2       loc_100044E2
 0001:000034F2       loc_100044F2
 0001:000034F9       loc_100044F9
 0001:000034FC       loc_100044FC
 0001:00003515       loc_10004515
 0001:00003523       loc_10004523
 0001:00003530       loc_10004530
 0001:00003539       loc_10004539
 0001:00003554       loc_10004554
 0001:00003561       loc_10004561
 0001:0000356E       loc_1000456E
 0001:00003576       loc_10004576
 0001:00003583       loc_10004583
 0001:0000358B       loc_1000458B
 0001:00003595       loc_10004595
 0001:0000359C       loc_1000459C
 0001:00003600       loc_10004600
 0001:00003611       loc_10004611
 0001:00003630       _fftwf_plan_many_r2r
 0001:00003655       loc_10004655
 0001:00003665       loc_10004665
 0001:0000366E       loc_1000466E
 0001:00003671       loc_10004671
 0001:0000368F       loc_1000468F
 0001:0000369C       loc_1000469C
 0001:000036BA       loc_100046BA
 0001:000036C7       loc_100046C7
 0001:000036D1       loc_100046D1
 0001:000036D8       loc_100046D8
 0001:0000372F       loc_1000472F
 0001:00003735       loc_10004735
 0001:00003742       loc_10004742
 0001:00003764       loc_10004764
 0001:00003770       _fftwf_plan_r2r_1d
 0001:00003780       loc_10004780
 0001:000037C3       loc_100047C3
 0001:000037D0       loc_100047D0
 0001:000037E1       loc_100047E1
 0001:000037E8       loc_100047E8
 0001:0000383B       loc_1000483B
 0001:00003882       loc_10004882
 0001:00003888       loc_10004888
 0001:00003893       loc_10004893
 0001:00003899       loc_10004899
 0001:000038C1       loc_100048C1
 0001:000038D0       _fftwf_plan_r2r_2d
 0001:000038F1       loc_100048F1
 0001:00003934       loc_10004934
 0001:00003941       loc_10004941
 0001:0000394D       loc_1000494D
 0001:00003954       loc_10004954
 0001:000039BD       loc_100049BD
 0001:000039C4       loc_100049C4
 0001:000039CA       loc_100049CA
 0001:000039F2       loc_100049F2
 0001:00003A00       _fftwf_plan_r2r_3d
 0001:00003A50       loc_10004A50
 0001:00003A90       loc_10004A90
 0001:00003A9D       loc_10004A9D
 0001:00003AAD       loc_10004AAD
 0001:00003AB5       loc_10004AB5
 0001:00003B30       loc_10004B30
 0001:00003B43       loc_10004B43
 0001:00003B49       loc_10004B49
 0001:00003B71       loc_10004B71
 0001:00003B90       _fftwf_plan_r2r
 0001:00003BD0       _fftwf_fprint_plan
 0001:00003BFD       loc_10004BFD
 0001:00003C10       _fftwf_print_plan
 0001:00003C43       loc_10004C43
 0001:00003C60       _fftwf_the_planner
 0001:00003C7D       locret_10004C7D
 0001:00003C80       _fftwf_cleanup
 0001:00003C98       locret_10004C98
 0001:00003CA0       _fftwf_set_timelimit
 0001:00003CC0       loc_10004CC0
 0001:00003CD0       bluestein_sequence
 0001:00003D00       loc_10004D00
 0001:00003D15       loc_10004D15
 0001:00003D1B       loc_10004D1B
 0001:00003D28       loc_10004D28
 0001:00003D41       loc_10004D41
 0001:00003D54       loc_10004D54
 0001:00003D70       mktwiddle
 0001:00003DE0       loc_10004DE0
 0001:00003DF0       loc_10004DF0
 0001:00003E49       loc_10004E49
 0001:00003E4C       loc_10004E4C
 0001:00003EED       loc_10004EED
 0001:00003F06       loc_10004F06
 0001:00003F09       loc_10004F09
 0001:00003F38       loc_10004F38
 0001:00003F60       apply
 0001:00004000       loc_10005000
 0001:00004135       loc_10005135
 0001:00004170       loc_10005170
 0001:000041C8       loc_100051C8
 0001:000041D2       loc_100051D2
 0001:000041E2       loc_100051E2
 0001:00004222       loc_10005222
 0001:0000433A       loc_1000533A
 0001:00004350       loc_10005350
 0001:000043A1       loc_100053A1
 0001:00004414       loc_10005414
 0001:00004546       loc_10005546
 0001:00004574       loc_10005574
 0001:000045C4       loc_100055C4
 0001:000045D5       loc_100055D5
 0001:000045E0       awake
 0001:00004602       loc_10005602
 0001:00004615       loc_10005615
 0001:0000462B       loc_1000562B
 0001:00004642       loc_10005642
 0001:00004650       destroy
 0001:00004673       loc_10005673
 0001:00004680       print
 0001:000046B0       choose_transform_size
 0001:000046C0       loc_100056C0
 0001:000046D0       loc_100056D0
 0001:000046E0       loc_100056E0
 0001:000046EE       loc_100056EE
 0001:00004700       loc_10005700
 0001:00004710       mkplan_49
 0001:00004754       loc_10005754
 0001:0000475B       loc_1000575B
 0001:000047B9       loc_100057B9
 0001:000047CA       loc_100057CA
 0001:000047E5       nada
 0001:000047F6       loc_100057F6
 0001:000047FF       loc_100057FF
 0001:00004810       loc_10005810
 0001:00004863       loc_10005863
 0001:00004915       loc_10005915
 0001:00004930       mksolver
 0001:0000498F       loc_1000598F
 0001:000049B0       _fftwf_dft_bluestein_register
 0001:000049D0       apply_24
 0001:00004A40       loc_10005A40
 0001:00004A43       loc_10005A43
 0001:00004A94       loc_10005A94
 0001:00004AA5       loc_10005AA5
 0001:00004AD0       awake_25
 0001:00004AF2       loc_10005AF2
 0001:00004B08       loc_10005B08
 0001:00004B1E       loc_10005B1E
 0001:00004B30       print_57
 0001:00004B70       applicable0
 0001:00004BC8       loc_10005BC8
 0001:00004BFF       loc_10005BFF
 0001:00004C08       loc_10005C08
 0001:00004C17       loc_10005C17
 0001:00004C23       loc_10005C23
 0001:00004C2F       loc_10005C2F
 0001:00004C54       loc_10005C54
 0001:00004C60       mkplan_0
 0001:00004CC4       loc_10005CC4
 0001:00004CDC       loc_10005CDC
 0001:00004CE3       loc_10005CE3
 0001:00004CEC       loc_10005CEC
 0001:00004CF0       loc_10005CF0
 0001:00004D0F       loc_10005D0F
 0001:00004D23       loc_10005D23
 0001:00004D4F       loc_10005D4F
 0001:00004D6A       loc_10005D6A
 0001:00004D7C       loc_10005D7C
 0001:00004D83       loc_10005D83
 0001:00004D85       loc_10005D85
 0001:00004DE6       loc_10005DE6
 0001:00004DF4       loc_10005DF4
 0001:00004E04       loc_10005E04
 0001:00004E0D       loc_10005E0D
 0001:00004E81       loc_10005E81
 0001:00004E96       loc_10005E96
 0001:00004EEC       loc_10005EEC
 0001:00004EFA       loc_10005EFA
 0001:00004F0A       loc_10005F0A
 0001:00004F13       loc_10005F13
 0001:00004F93       loc_10005F93
 0001:00004FBD       loc_10005FBD
 0001:00004FDA       loc_10005FDA
 0001:0000506D       loc_1000606D
 0001:0000507D       loc_1000607D
 0001:00005085       loc_10006085
 0001:00005089       nada_21
 0001:0000509A       loc_1000609A
 0001:000050BA       loc_100060BA
 0001:000050D2       loc_100060D2
 0001:000050DB       loc_100060DB
 0001:00005190       _fftwf_dft_buffered_register
 0001:000051A0       loc_100061A0
 0001:000051E9       loc_100061E9
 0001:00005212       loc_10006212
 0001:00005220       _fftwf_dft_conf_standard
 0001:00005232       loc_10006232
 0001:0000524A       loc_1000624A
 0001:00005260       loc_10006260
 0001:00005278       loc_10006278
 0001:00005292       loc_10006292
 0001:000052AA       loc_100062AA
 0001:000052AD       loc_100062AD
 0001:000052B0       apply_dit_dft
 0001:000052F0       apply_dif
 0001:00005330       print_0
 0001:00005349       loc_10006349
 0001:00005370       _fftwf_ct_applicable
 0001:000053AA       loc_100063AA
 0001:000053C0       loc_100063C0
 0001:000053C6       loc_100063C6
 0001:000053F0       loc_100063F0
 0001:00005400       mkplan_1
 0001:00005430       loc_10006430
 0001:00005469       loc_10006469
 0001:00005479       loc_10006479
 0001:00005494       loc_10006494
 0001:0000549E       loc_1000649E
 0001:000054C2       loc_100064C2
 0001:000054D0       loc_100064D0
 0001:000054EB       loc_100064EB
 0001:00005555       loc_10006555
 0001:00005605       loc_10006605
 0001:00005611       loc_10006611
 0001:000056B2       nada_0
 0001:000056E1       loc_100066E1
 0001:000056EA       loc_100066EA
 0001:000056EF       loc_100066EF
 0001:00005707       loc_10006707
 0001:00005750       apply_0
 0001:00005763       loc_10006763
 0001:000057A7       loc_100067A7
 0001:000057B0       apply_extra_iter
 0001:00005810       loc_10006810
 0001:00005816       loc_10006816
 0001:0000586D       loc_1000686D
 0001:00005880       dobatch
 0001:000058C7       loc_100068C7
 0001:000058CF       loc_100068CF
 0001:000058ED       loc_100068ED
 0001:00005905       loc_10006905
 0001:00005943       loc_10006943
 0001:0000594B       loc_1000694B
 0001:0000597D       loc_1000697D
 0001:000059B0       apply_buf
 0001:00005A00       loc_10006A00
 0001:00005A10       loc_10006A10
 0001:00005A35       loc_10006A35
 0001:00005A67       loc_10006A67
 0001:00005A8A       loc_10006A8A
 0001:00005A9B       loc_10006A9B
 0001:00005AA0       awake_0
 0001:00005ADC       loc_10006ADC
 0001:00005AF0       destroy_23
 0001:00005B0E       loc_10006B0E
 0001:00005B1E       loc_10006B1E
 0001:00005B30       print_1
 0001:00005B80       loc_10006B80
 0001:00005BB0       applicable0_12
 0001:00005C88       loc_10006C88
 0001:00005CCA       loc_10006CCA
 0001:00005CE0       applicable0_buf
 0001:00005D5F       loc_10006D5F
 0001:00005D70       applicable
 0001:00005DB4       loc_10006DB4
 0001:00005DBA       loc_10006DBA
 0001:00005DF2       loc_10006DF2
 0001:00005E33       loc_10006E33
 0001:00005E4A       loc_10006E4A
 0001:00005E60       mkcldw
 0001:00005EC4       loc_10006EC4
 0001:00005F1F       loc_10006F1F
 0001:00005F3F       loc_10006F3F
 0001:00005F4A       loc_10006F4A
 0001:00005F5D       loc_10006F5D
 0001:00005FB5       loc_10006FB5
 0001:00005FCF       loc_10006FCF
 0001:00006000       loc_10007000
 0001:0000600B       loc_1000700B
 0001:00006061       loc_10007061
 0001:0000606B       loc_1000706B
 0001:000060F1       loc_100070F1
 0001:0000610F       loc_1000710F
 0001:0000611D       loc_1000711D
 0001:00006130       regone
 0001:00006192       loc_10007192
 0001:00006201       loc_10007201
 0001:00006205       loc_10007205
 0001:00006210       apply_1
 0001:00006250       awake_1
 0001:00006285       loc_10007285
 0001:000062A0       destroy_0
 0001:000062BE       loc_100072BE
 0001:000062CE       loc_100072CE
 0001:000062E0       print_2
 0001:00006320       mkcldw_6
 0001:00006381       loc_10007381
 0001:0000638A       loc_1000738A
 0001:000063E2       loc_100073E2
 0001:00006430       loc_10007430
 0001:0000643E       loc_1000743E
 0001:00006460       loc_10007460
 0001:0000646C       loc_1000746C
 0001:000064EE       loc_100074EE
 0001:00006500       regone_3
 0001:00006562       loc_10007562
 0001:000065C5       loc_100075C5
 0001:000065C9       loc_100075C9
 0001:000065E0       bytwiddle
 0001:00006640       loc_10007640
 0001:00006656       loc_10007656
 0001:000066E0       loc_100076E0
 0001:0000680D       loc_1000780D
 0001:00006840       loc_10007840
 0001:00006843       loc_10007843
 0001:00006898       loc_10007898
 0001:000068B0       loc_100078B0
 0001:000068C1       loc_100078C1
 0001:000068D0       apply_dit
 0001:00006910       apply_dif_6
 0001:00006950       awake_2
 0001:00006972       loc_10007972
 0001:00006998       loc_10007998
 0001:000069B0       destroy_1
 0001:000069D3       loc_100079D3
 0001:000069E0       print_3
 0001:000069F6       loc_100079F6
 0001:00006A20       mkcldw_0
 0001:00006A4A       loc_10007A4A
 0001:00006A50       loc_10007A50
 0001:00006AC0       loc_10007AC0
 0001:00006AE0       loc_10007AE0
 0001:00006AEB       loc_10007AEB
 0001:00006B02       loc_10007B02
 0001:00006B5A       loc_10007B5A
 0001:00006C0E       loc_10007C0E
 0001:00006C20       regsolver
 0001:00006C81       loc_10007C81
 0001:00006CC7       loc_10007CC7
 0001:00006CCB       loc_10007CCB
 0001:00006CE0       _fftwf_ct_generic_register
 0001:00006D00       bytwiddle_2
 0001:00006D40       loc_10007D40
 0001:00006D70       loc_10007D70
 0001:00006D73       loc_10007D73
 0001:00006DB7       loc_10007DB7
 0001:00006DDD       loc_10007DDD
 0001:00006DF0       dobatch_4
 0001:00006E55       loc_10007E55
 0001:00006E5D       loc_10007E5D
 0001:00006E8B       loc_10007E8B
 0001:00006EB0       apply_2
 0001:00006EE0       loc_10007EE0
 0001:00006F00       loc_10007F00
 0001:00006F11       loc_10007F11
 0001:00006F20       awake_3
 0001:00006F42       loc_10007F42
 0001:00006F60       loc_10007F60
 0001:00006F79       loc_10007F79
 0001:00006F89       loc_10007F89
 0001:00006FA0       destroy_2
 0001:00006FC3       loc_10007FC3
 0001:00006FD0       print_4
 0001:00007000       mkcldw_1
 0001:00007052       loc_10008052
 0001:00007059       loc_10008059
 0001:000070B6       loc_100080B6
 0001:000070CA       loc_100080CA
 0001:000070F3       loc_100080F3
 0001:00007104       loc_10008104
 0001:00007111       loc_10008111
 0001:00007167       loc_10008167
 0001:00007207       loc_10008207
 0001:00007220       _fftwf_ct_genericbuf_register
 0001:00007240       loc_10008240
 0001:00007247       loc_10008247
 0001:000072AD       loc_100082AD
 0001:00007305       loc_10008305
 0001:0000732B       loc_1000832B
 0001:00007340       dobatch_0
 0001:00007365       loc_10008365
 0001:0000736B       loc_1000836B
 0001:0000738D       loc_1000838D
 0001:000073A3       loc_100083A3
 0001:000073B7       loc_100083B7
 0001:000073C4       loc_100083C4
 0001:000073EF       loc_100083EF
 0001:00007440       apply_buf_3
 0001:00007490       loc_10008490
 0001:000074DB       loc_100084DB
 0001:0000751A       loc_1000851A
 0001:0000752B       loc_1000852B
 0001:00007540       apply_3
 0001:00007580       apply_extra_iter_2
 0001:00007600       destroy_3
 0001:0000761E       loc_1000861E
 0001:0000762E       loc_1000862E
 0001:0000763E       loc_1000863E
 0001:00007650       print_5
 0001:00007689       loc_10008689
 0001:000076B0       applicable_buf
 0001:00007714       loc_10008714
 0001:0000771D       loc_1000871D
 0001:00007725       loc_10008725
 0001:000077B0       loc_100087B0
 0001:000077BF       loc_100087BF
 0001:000077CB       loc_100087CB
 0001:000077D0       loc_100087D0
 0001:000077DB       loc_100087DB
 0001:000077F0       applicable_20
 0001:000078EE       loc_100088EE
 0001:00007910       loc_10008910
 0001:0000791F       loc_1000891F
 0001:0000792B       loc_1000892B
 0001:00007936       loc_10008936
 0001:00007940       mkplan_2
 0001:00007970       loc_10008970
 0001:00007979       loc_10008979
 0001:000079C8       loc_100089C8
 0001:000079E8       loc_100089E8
 0001:000079F3       loc_100089F3
 0001:00007A1E       loc_10008A1E
 0001:00007A71       loc_10008A71
 0001:00007A8B       loc_10008A8B
 0001:00007AC7       loc_10008AC7
 0001:00007AD2       loc_10008AD2
 0001:00007AF3       loc_10008AF3
 0001:00007AFD       loc_10008AFD
 0001:00007B25       loc_10008B25
 0001:00007B2F       loc_10008B2F
 0001:00007B51       loc_10008B51
 0001:00007B5F       loc_10008B5F
 0001:00007B6E       loc_10008B6E
 0001:00007BDC       loc_10008BDC
 0001:00007BF0       mksolver_21
 0001:00007C45       loc_10008C45
 0001:00007C69       loc_10008C69
 0001:00007C80       cdot
 0001:00007CB3       loc_10008CB3
 0001:00007D05       loc_10008D05
 0001:00007D50       hartley
 0001:00007DB3       loc_10008DB3
 0001:00007E0B       loc_10008E0B
 0001:00007E20       apply_4
 0001:00007EB5       loc_10008EB5
 0001:00007EB8       loc_10008EB8
 0001:00007EEC       loc_10008EEC
 0001:00007F10       loc_10008F10
 0001:00007F21       loc_10008F21
 0001:00007F30       awake_4
 0001:00007F64       loc_10008F64
 0001:00007F80       print_6
 0001:00007FA0       applicable_0
 0001:00007FC6       loc_10008FC6
 0001:00007FE0       loc_10008FE0
 0001:00007FE9       loc_10008FE9
 0001:00007FFF       loc_10008FFF
 0001:00008010       mkplan_3
 0001:0000802F       loc_1000902F
 0001:00008085       loc_10009085
 0001:000080F8       loc_100090F8
 0001:00008110       mksolver_0
 0001:0000816F       loc_1000916F
 0001:00008190       _fftwf_dft_generic_register
 0001:000081B0       apply_op
 0001:000081E0       loc_100091E0
 0001:00008218       loc_10009218
 0001:00008240       destroy_4
 0001:00008267       loc_10009267
 0001:0000827F       loc_1000927F
 0001:00008297       loc_10009297
 0001:000082A0       awake_5
 0001:000082C2       loc_100092C2
 0001:000082D8       loc_100092D8
 0001:000082EE       loc_100092EE
 0001:00008300       print_7
 0001:00008330       pickdim
 0001:00008370       loc_10009370
 0001:00008390       loc_10009390
 0001:00008398       loc_10009398
 0001:000083A5       loc_100093A5
 0001:000083CC       loc_100093CC
 0001:000083DC       loc_100093DC
 0001:000083E6       loc_100093E6
 0001:000083FB       loc_100093FB
 0001:000083FF       loc_100093FF
 0001:0000840C       loc_1000940C
 0001:00008422       loc_10009422
 0001:00008453       loc_10009453
 0001:00008460       applicable0_0
 0001:00008487       loc_10009487
 0001:00008496       loc_10009496
 0001:000084A1       loc_100094A1
 0001:000084B0       loc_100094B0
 0001:000084E7       loc_100094E7
 0001:000084F0       applicable_1
 0001:0000850F       loc_1000950F
 0001:00008514       loc_10009514
 0001:0000855C       loc_1000955C
 0001:00008563       loc_10009563
 0001:00008566       loc_10009566
 0001:00008570       loc_10009570
 0001:00008580       mkplan_4
 0001:000085B6       loc_100095B6
 0001:000085BD       loc_100095BD
 0001:00008619       loc_10009619
 0001:00008626       loc_10009626
 0001:00008638       loc_10009638
 0001:00008640       loc_10009640
 0001:0000865E       loc_1000965E
 0001:0000866B       loc_1000966B
 0001:00008678       loc_10009678
 0001:00008680       loc_10009680
 0001:000086B0       loc_100096B0
 0001:000086CB       loc_100096CB
 0001:000086E0       loc_100096E0
 0001:000086ED       loc_100096ED
 0001:00008723       loc_10009723
 0001:0000873E       loc_1000973E
 0001:00008750       loc_10009750
 0001:0000875D       loc_1000975D
 0001:000087BF       loc_100097BF
 0001:000087D3       loc_100097D3
 0001:000087FA       loc_100097FA
 0001:00008887       loc_10009887
 0001:0000889B       loc_1000989B
 0001:000088C4       loc_100098C4
 0001:00008959       loc_10009959
 0001:00008975       loc_10009975
 0001:0000898D       loc_1000998D
 0001:00008996       loc_10009996
 0001:00008A00       mksolver_1
 0001:00008A5F       loc_10009A5F
 0001:00008A80       _fftwf_dft_indirect_transpose_register
 0001:00008AA0       mkcld_before
 0001:00008AD0       loc_10009AD0
 0001:00008AE9       loc_10009AE9
 0001:00008B00       loc_10009B00
 0001:00008B0D       loc_10009B0D
 0001:00008B35       loc_10009B35
 0001:00008B4E       loc_10009B4E
 0001:00008B60       loc_10009B60
 0001:00008B6D       loc_10009B6D
 0001:00008BB0       apply_after
 0001:00008BF0       mkcld_after
 0001:00008C20       loc_10009C20
 0001:00008C39       loc_10009C39
 0001:00008C50       loc_10009C50
 0001:00008C5D       loc_10009C5D
 0001:00008C85       loc_10009C85
 0001:00008C9E       loc_10009C9E
 0001:00008CB0       loc_10009CB0
 0001:00008CBD       loc_10009CBD
 0001:00008D00       print_8
 0001:00008D30       applicable0_1
 0001:00008D70       loc_10009D70
 0001:00008D82       loc_10009D82
 0001:00008D8F       loc_10009D8F
 0001:00008D92       loc_10009D92
 0001:00008DB4       loc_10009DB4
 0001:00008DBB       loc_10009DBB
 0001:00008DF0       loc_10009DF0
 0001:00008DF3       loc_10009DF3
 0001:00008E1D       loc_10009E1D
 0001:00008E29       loc_10009E29
 0001:00008E40       mkplan_5
 0001:00008E72       loc_10009E72
 0001:00008E7A       loc_10009E7A
 0001:00008ED7       loc_10009ED7
 0001:00008EE8       loc_10009EE8
 0001:00008F0E       loc_10009F0E
 0001:00008F4F       loc_10009F4F
 0001:00008F58       loc_10009F58
 0001:00008FB8       loc_10009FB8
 0001:00009016       loc_1000A016
 0001:00009030       _fftwf_dft_indirect_register
 0001:00009040       loc_1000A040
 0001:00009092       loc_1000A092
 0001:000090C2       loc_1000A0C2
 0001:000090D0       _fftwf_plan_null_destroy
 0001:000090E0       print_9
 0001:00009100       mkplan_6
 0001:0000912A       loc_1000A12A
 0001:0000912E       loc_1000A12E
 0001:00009180       loc_1000A180
 0001:000091BD       loc_1000A1BD
 0001:000091D0       mksolver_2
 0001:0000922F       loc_1000A22F
 0001:00009250       _fftwf_dft_nop_register
 0001:00009270       hash
 0001:00009280       loc_1000A280
 0001:0000929F       loc_1000A29F
 0001:00009350       print_10
 0001:000093A0       zero
 0001:000093F0       _fftwf_mkproblem_dft
 0001:00009414       loc_1000A414
 0001:0000942A       loc_1000A42A
 0001:00009432       loc_1000A432
 0001:0000943B       loc_1000A43B
 0001:0000944E       loc_1000A44E
 0001:000094A2       loc_1000A4A2
 0001:000094CE       loc_1000A4CE
 0001:000094F8       loc_1000A4F8
 0001:00009510       _fftwf_mkproblem_dft_d
 0001:0000953B       loc_1000A53B
 0001:0000954C       loc_1000A54C
 0001:00009560       mkomega
 0001:00009575       loc_1000A575
 0001:00009589       loc_1000A589
 0001:00009592       loc_1000A592
 0001:000095A3       loc_1000A5A3
 0001:000095A6       loc_1000A5A6
 0001:000095F0       loc_1000A5F0
 0001:00009638       loc_1000A638
 0001:0000964B       loc_1000A64B
 0001:00009657       loc_1000A657
 0001:00009671       loc_1000A671
 0001:00009685       loc_1000A685
 0001:000096C0       apply_5
 0001:00009730       loc_1000A730
 0001:00009768       loc_1000A768
 0001:00009775       loc_1000A775
 0001:0000977C       loc_1000A77C
 0001:00009815       loc_1000A815
 0001:00009947       loc_1000A947
 0001:00009964       loc_1000A964
 0001:000099C1       loc_1000A9C1
 0001:00009A10       loc_1000AA10
 0001:00009A4D       loc_1000AA4D
 0001:00009A5E       loc_1000AA5E
 0001:00009A64       loc_1000AA64
 0001:00009A76       loc_1000AA76
 0001:00009A88       loc_1000AA88
 0001:00009A8A       loc_1000AA8A
 0001:00009A94       loc_1000AA94
 0001:00009AA1       loc_1000AAA1
 0001:00009AB8       loc_1000AAB8
 0001:00009AC0       awake_6
 0001:00009AE2       loc_1000AAE2
 0001:00009AF8       loc_1000AAF8
 0001:00009B0E       loc_1000AB0E
 0001:00009B43       loc_1000AB43
 0001:00009B60       destroy_5
 0001:00009B87       loc_1000AB87
 0001:00009B9F       loc_1000AB9F
 0001:00009BB7       loc_1000ABB7
 0001:00009BC0       print_11
 0001:00009BFE       loc_1000ABFE
 0001:00009C19       loc_1000AC19
 0001:00009C30       mkP
 0001:00009CB3       loc_1000ACB3
 0001:00009CC4       loc_1000ACC4
 0001:00009D36       loc_1000AD36
 0001:00009D47       loc_1000AD47
 0001:00009DAF       loc_1000ADAF
 0001:00009DC0       loc_1000ADC0
 0001:00009DF3       loc_1000ADF3
 0001:00009E87       loc_1000AE87
 0001:00009E8C       loc_1000AE8C
 0001:00009E8F       loc_1000AE8F
 0001:00009E92       nada_1
 0001:00009EA8       loc_1000AEA8
 0001:00009EBD       loc_1000AEBD
 0001:00009ED8       loc_1000AED8
 0001:00009EED       loc_1000AEED
 0001:00009F00       mkplan_7
 0001:00009F3A       loc_1000AF3A
 0001:00009F6C       loc_1000AF6C
 0001:00009FD3       loc_1000AFD3
 0001:0000A028       loc_1000B028
 0001:0000A031       loc_1000B031
 0001:0000A03C       loc_1000B03C
 0001:0000A050       mksolver_3
 0001:0000A0AF       loc_1000B0AF
 0001:0000A0D0       _fftwf_dft_rader_register
 0001:0000A0F0       print_12
 0001:0000A120       mkplan_8
 0001:0000A148       loc_1000B148
 0001:0000A192       loc_1000B192
 0001:0000A1AB       loc_1000B1AB
 0001:0000A1C0       loc_1000B1C0
 0001:0000A1CD       loc_1000B1CD
 0001:0000A1F1       loc_1000B1F1
 0001:0000A20A       loc_1000B20A
 0001:0000A220       loc_1000B220
 0001:0000A22D       loc_1000B22D
 0001:0000A28D       loc_1000B28D
 0001:0000A29E       loc_1000B29E
 0001:0000A2C4       loc_1000B2C4
 0001:0000A319       loc_1000B319
 0001:0000A32D       loc_1000B32D
 0001:0000A350       loc_1000B350
 0001:0000A369       loc_1000B369
 0001:0000A37F       loc_1000B37F
 0001:0000A3A6       loc_1000B3A6
 0001:0000A3FB       loc_1000B3FB
 0001:0000A470       loc_1000B470
 0001:0000A480       _fftwf_dft_rank_geq2_register
 0001:0000A490       loc_1000B490
 0001:0000A4EA       loc_1000B4EA
 0001:0000A52C       loc_1000B52C
 0001:0000A540       _fftwf_rdft2_solve
 0001:0000A570       apply_6
 0001:0000A5C0       loc_1000B5C0
 0001:0000A5C6       loc_1000B5C6
 0001:0000A5E5       loc_1000B5E5
 0001:0000A5F0       awake_7
 0001:0000A612       loc_1000B612
 0001:0000A620       print_13
 0001:0000A650       applicable_2
 0001:0000A69E       loc_1000B69E
 0001:0000A6A7       loc_1000B6A7
 0001:0000A6BB       loc_1000B6BB
 0001:0000A6DF       loc_1000B6DF
 0001:0000A6EA       loc_1000B6EA
 0001:0000A6F2       loc_1000B6F2
 0001:0000A6FE       loc_1000B6FE
 0001:0000A713       loc_1000B713
 0001:0000A720       mkplan_9
 0001:0000A748       loc_1000B748
 0001:0000A772       loc_1000B772
 0001:0000A782       loc_1000B782
 0001:0000A796       loc_1000B796
 0001:0000A7A3       loc_1000B7A3
 0001:0000A7BA       loc_1000B7BA
 0001:0000A7CA       loc_1000B7CA
 0001:0000A7DE       loc_1000B7DE
 0001:0000A7EB       loc_1000B7EB
 0001:0000A82C       loc_1000B82C
 0001:0000A83D       loc_1000B83D
 0001:0000A863       loc_1000B863
 0001:0000A870       loc_1000B870
 0001:0000A8C5       loc_1000B8C5
 0001:0000A95E       loc_1000B95E
 0001:0000A967       loc_1000B967
 0001:0000A970       loc_1000B970
 0001:0000A980       _fftwf_dft_vrank_geq1_register
 0001:0000A990       loc_1000B990
 0001:0000A9EA       loc_1000B9EA
 0001:0000AA2C       loc_1000BA2C
 0001:0000AA40       recur
 0001:0000AA70       loc_1000BA70
 0001:0000AA95       loc_1000BA95
 0001:0000AAA8       loc_1000BAA8
 0001:0000AAD0       loc_1000BAD0
 0001:0000AAED       loc_1000BAED
 0001:0000AB00       n1_10
 0001:0000AB67       loc_1000BB67
 0001:0000AB6A       loc_1000BB6A
 0001:0000B099       loc_1000C099
 0001:0000B0A0       _fftwf_codelet_n1_10
 0001:0000B0E0       n1_11
 0001:0000B147       loc_1000C147
 0001:0000B14A       loc_1000C14A
 0001:0000B8AD       loc_1000C8AD
 0001:0000B8C0       _fftwf_codelet_n1_11
 0001:0000B900       n1_12
 0001:0000B95B       loc_1000C95B
 0001:0000B95E       loc_1000C95E
 0001:0000BF7D       loc_1000CF7D
 0001:0000BF90       _fftwf_codelet_n1_12
 0001:0000BFF0       n1_13
 0001:0000C075       loc_1000D075
 0001:0000C083       loc_1000D083
 0001:0000CA91       loc_1000DA91
 0001:0000CAA0       _fftwf_codelet_n1_13
 0001:0000CAE0       n1_14
 0001:0000CB56       loc_1000DB56
 0001:0000CB5C       loc_1000DB5C
 0001:0000D2F9       loc_1000E2F9
 0001:0000D300       _fftwf_codelet_n1_14
 0001:0000D340       n1_15
 0001:0000D3C5       loc_1000E3C5
 0001:0000D3CB       loc_1000E3CB
 0001:0000DD89       loc_1000ED89
 0001:0000DD90       _fftwf_codelet_n1_15
 0001:0000DDD0       n1_16
 0001:0000DE43       loc_1000EE43
 0001:0000DE49       loc_1000EE49
 0001:0000E6F6       loc_1000F6F6
 0001:0000E700       _fftwf_codelet_n1_16
 0001:0000E740       n1_2
 0001:0000E780       loc_1000F780
 0001:0000E95C       loc_1000F95C
 0001:0000E962       loc_1000F962
 0001:0000E990       loc_1000F990
 0001:0000EA01       loc_1000FA01
 0001:0000EA10       _fftwf_codelet_n1_2
 0001:0000EA50       n1_20
 0001:0000EAC9       loc_1000FAC9
 0001:0000EACF       loc_1000FACF
 0001:0000F81A       loc_1001081A
 0001:0000F820       _fftwf_codelet_n1_20
 0001:0000F860       n1_25
 0001:0000F8DF       loc_100108DF
 0001:0000F8E5       loc_100108E5
 0001:00010F41       loc_10011F41
 0001:00010F50       _fftwf_codelet_n1_25
 0001:00010F90       n1_3
 0001:00010FE8       loc_10011FE8
 0001:00010FEB       loc_10011FEB
 0001:000110FB       loc_100120FB
 0001:00011100       _fftwf_codelet_n1_3
 0001:00011140       n1_32
 0001:000111C5       loc_100121C5
 0001:000111CB       loc_100121CB
 0001:0001288F       loc_1001388F
 0001:000128A0       _fftwf_codelet_n1_32
 0001:000128E0       n1_4
 0001:00012930       loc_10013930
 0001:00012933       loc_10013933
 0001:00012A85       loc_10013A85
 0001:00012A90       _fftwf_codelet_n1_4
 0001:00012AD0       n1_5
 0001:00012B28       loc_10013B28
 0001:00012B2B       loc_10013B2B
 0001:00012D8B       loc_10013D8B
 0001:00012D90       _fftwf_codelet_n1_5
 0001:00012DD0       n1_6
 0001:00012E28       loc_10013E28
 0001:00012E2B       loc_10013E2B
 0001:000130A9       loc_100140A9
 0001:000130B0       _fftwf_codelet_n1_6
 0001:000130F0       n1_64
 0001:0001316F       loc_1001416F
 0001:00013175       loc_10014175
 0001:00016B76       loc_10017B76
 0001:00016B80       _fftwf_codelet_n1_64
 0001:00016BC0       n1_7
 0001:00016C2D       loc_10017C2D
 0001:00016C30       loc_10017C30
 0001:00016F8E       loc_10017F8E
 0001:00016FA0       _fftwf_codelet_n1_7
 0001:00016FE0       n1_8
 0001:00017035       loc_10018035
 0001:00017038       loc_10018038
 0001:000173AF       loc_100183AF
 0001:000173C0       _fftwf_codelet_n1_8
 0001:00017400       n1_9
 0001:00017467       loc_10018467
 0001:0001746A       loc_1001846A
 0001:000179A6       loc_100189A6
 0001:000179B0       _fftwf_codelet_n1_9
 0001:000179F0       q1_2
 0001:00017A35       loc_10018A35
 0001:00017A38       loc_10018A38
 0001:00017B89       loc_10018B89
 0001:00017B90       _fftwf_codelet_q1_2
 0001:00017BB0       q1_3
 0001:00017C00       loc_10018C00
 0001:00017C03       loc_10018C03
 0001:00018002       loc_10019002
 0001:00018010       _fftwf_codelet_q1_3
 0001:00018030       q1_4
 0001:00018080       loc_10019080
 0001:00018083       loc_10019083
 0001:00018811       loc_10019811
 0001:00018820       _fftwf_codelet_q1_4
 0001:00018840       q1_5
 0001:000188A8       loc_100198A8
 0001:000188AE       loc_100198AE
 0001:00019829       loc_1001A829
 0001:00019830       _fftwf_codelet_q1_5
 0001:00019850       q1_6
 0001:000198B0       loc_1001A8B0
 0001:000198B6       loc_1001A8B6
 0001:0001AF88       loc_1001BF88
 0001:0001AF90       _fftwf_codelet_q1_6
 0001:0001AFB0       q1_8
 0001:0001B010       loc_1001C010
 0001:0001B016       loc_1001C016
 0001:0001DB1E       loc_1001EB1E
 0001:0001DB30       _fftwf_codelet_q1_8
 0001:0001DB50       t1_10
 0001:0001DBA5       loc_1001EBA5
 0001:0001E20E       loc_1001F20E
 0001:0001E220       _fftwf_codelet_t1_10
 0001:0001E250       t1_12
 0001:0001E29D       loc_1001F29D
 0001:0001EA5E       loc_1001FA5E
 0001:0001EA70       _fftwf_codelet_t1_12
 0001:0001EAA0       t1_15
 0001:0001EB02       loc_1001FB02
 0001:0001F647       loc_10020647
 0001:0001F650       _fftwf_codelet_t1_15
 0001:0001F680       t1_16
 0001:0001F6D6       loc_100206D6
 0001:00020231       loc_10021231
 0001:00020240       _fftwf_codelet_t1_16
 0001:00020270       t1_2
 0001:000202C1       loc_100212C1
 0001:00020529       loc_10021529
 0001:0002052F       loc_1002152F
 0001:00020550       loc_10021550
 0001:00020553       loc_10021553
 0001:000205F3       loc_100215F3
 0001:000205F5       loc_100215F5
 0001:00020600       _fftwf_codelet_t1_2
 0001:00020630       t1_20
 0001:0002068F       loc_1002168F
 0001:00021630       loc_10022630
 0001:00021640       _fftwf_codelet_t1_20
 0001:00021670       t1_25
 0001:000216D3       loc_100226D3
 0001:00022FC1       loc_10023FC1
 0001:00022FD0       _fftwf_codelet_t1_25
 0001:00023000       t1_3
 0001:00023040       loc_10024040
 0001:000231B6       loc_100241B6
 0001:000231C0       _fftwf_codelet_t1_3
 0001:000231F0       t1_32
 0001:00023255       loc_10024255
 0001:00024D01       loc_10025D01
 0001:00024D10       _fftwf_codelet_t1_32
 0001:00024D40       t1_4
 0001:00024D82       loc_10025D82
 0001:00024D85       loc_10025D85
 0001:00024F5D       loc_10025F5D
 0001:00024F70       _fftwf_codelet_t1_4
 0001:00024FA0       t1_5
 0001:00024FE7       loc_10025FE7
 0001:000252E5       loc_100262E5
 0001:000252F0       _fftwf_codelet_t1_5
 0001:00025320       t1_6
 0001:00025366       loc_10026366
 0001:000256E4       loc_100266E4
 0001:000256F0       _fftwf_codelet_t1_6
 0001:00025720       t1_64
 0001:00025785       loc_10026785
 0001:000298F2       loc_1002A8F2
 0001:00029900       _fftwf_codelet_t1_64
 0001:00029930       t1_7
 0001:0002998A       loc_1002A98A
 0001:00029DD1       loc_1002ADD1
 0001:00029DE0       _fftwf_codelet_t1_7
 0001:00029E10       t1_8
 0001:00029E56       loc_1002AE56
 0001:0002A332       loc_1002B332
 0001:0002A340       _fftwf_codelet_t1_8
 0001:0002A370       t1_9
 0001:0002A3C3       loc_1002B3C3
 0001:0002AA0B       loc_1002BA0B
 0001:0002AA20       _fftwf_codelet_t1_9
 0001:0002AA50       t2_10
 0001:0002AA96       loc_1002BA96
 0001:0002B1BD       loc_1002C1BD
 0001:0002B1D0       _fftwf_codelet_t2_10
 0001:0002B200       t2_16
 0001:0002B24A       loc_1002C24A
 0001:0002BE7F       loc_1002CE7F
 0001:0002BE90       _fftwf_codelet_t2_16
 0001:0002BEC0       t2_20
 0001:0002BF10       loc_1002CF10
 0001:0002D097       loc_1002E097
 0001:0002D0A0       _fftwf_codelet_t2_20
 0001:0002D0D0       t2_25
 0001:0002D126       loc_1002E126
 0001:0002EDE1       loc_1002FDE1
 0001:0002EDF0       _fftwf_codelet_t2_25
 0001:0002EE20       t2_32
 0001:0002EE76       loc_1002FE76
 0001:00030DB3       loc_10031DB3
 0001:00030DC0       _fftwf_codelet_t2_32
 0001:00030DF0       t2_4
 0001:00030E33       loc_10031E33
 0001:00030E36       loc_10031E36
 0001:00031010       loc_10032010
 0001:00031020       _fftwf_codelet_t2_4
 0001:00031050       t2_5
 0001:00031091       loc_10032091
 0001:000313CF       loc_100323CF
 0001:000313E0       _fftwf_codelet_t2_5
 0001:00031410       t2_64
 0001:00031465       loc_10032465
 0001:000362EC       loc_100372EC
 0001:00036300       _fftwf_codelet_t2_64
 0001:00036330       t2_8
 0001:00036370       loc_10037370
 0001:00036898       loc_10037898
 0001:000368A0       _fftwf_codelet_t2_8
 0001:000368D0       okp
 0001:000368E2       loc_100378E2
 0001:000368EE       loc_100378EE
 0001:000368FA       loc_100378FA
 0001:00036906       loc_10037906
 0001:0003690A       loc_1003790A
 0001:00036920       okp_2
 0001:00036932       loc_10037932
 0001:0003693E       loc_1003793E
 0001:0003694A       loc_1003794A
 0001:0003694E       loc_1003794E
 0001:00036960       n1b_okp
 0001:000369E5       loc_100379E5
 0001:000369F5       loc_100379F5
 0001:00036A00       loc_10037A00
 0001:00036A0B       loc_10037A0B
 0001:00036A17       loc_10037A17
 0001:00036A21       loc_10037A21
 0001:00036A30       n1f_okp
 0001:00036AB5       loc_10037AB5
 0001:00036AC5       loc_10037AC5
 0001:00036AD0       loc_10037AD0
 0001:00036ADB       loc_10037ADB
 0001:00036AE7       loc_10037AE7
 0001:00036AF1       loc_10037AF1
 0001:00036B00       n2b_okp
 0001:00036B77       loc_10037B77
 0001:00036B87       loc_10037B87
 0001:00036B93       loc_10037B93
 0001:00036B9F       loc_10037B9F
 0001:00036BAA       loc_10037BAA
 0001:00036BB2       loc_10037BB2
 0001:00036BC0       n2f_okp
 0001:00036C37       loc_10037C37
 0001:00036C47       loc_10037C47
 0001:00036C53       loc_10037C53
 0001:00036C5F       loc_10037C5F
 0001:00036C6A       loc_10037C6A
 0001:00036C72       loc_10037C72
 0001:00036C80       n2s_okp
 0001:00036CEA       loc_10037CEA
 0001:00036CFA       loc_10037CFA
 0001:00036D06       loc_10037D06
 0001:00036D12       loc_10037D12
 0001:00036D1D       loc_10037D1D
 0001:00036D25       loc_10037D25
 0001:00036D30       q1b_okp
 0001:00036D95       loc_10037D95
 0001:00036DA7       loc_10037DA7
 0001:00036DB8       loc_10037DB8
 0001:00036DC8       loc_10037DC8
 0001:00036DD3       loc_10037DD3
 0001:00036DDE       loc_10037DDE
 0001:00036DE7       loc_10037DE7
 0001:00036DF0       q1f_okp
 0001:00036E55       loc_10037E55
 0001:00036E67       loc_10037E67
 0001:00036E78       loc_10037E78
 0001:00036E88       loc_10037E88
 0001:00036E93       loc_10037E93
 0001:00036E9E       loc_10037E9E
 0001:00036EA7       loc_10037EA7
 0001:00036EB0       t_okp_common
 0001:00036EE2       loc_10037EE2
 0001:00036EF3       loc_10037EF3
 0001:00036F04       loc_10037F04
 0001:00036F11       loc_10037F11
 0001:00036F1D       loc_10037F1D
 0001:00036F29       loc_10037F29
 0001:00036F30       loc_10037F30
 0001:00036F40       t_okp_commonu
 0001:00036F73       loc_10037F73
 0001:00036F84       loc_10037F84
 0001:00036F91       loc_10037F91
 0001:00036F9D       loc_10037F9D
 0001:00036FA8       loc_10037FA8
 0001:00036FAF       loc_10037FAF
 0001:00036FC0       t_okp_t1f
 0001:00037003       loc_10038003
 0001:00037010       t_okp_t1fu
 0001:00037050       loc_10038050
 0001:00037060       t_okp_t1b
 0001:000370A3       loc_100380A3
 0001:000370B0       t_okp_t1bu
 0001:000370F0       loc_100380F0
 0001:00037100       t_okp_t2f
 0001:00037151       loc_10038151
 0001:00037160       t_okp_t2b
 0001:000371B1       loc_100381B1
 0001:000371C0       ts_okp
 0001:00037206       loc_10038206
 0001:00037218       loc_10038218
 0001:00037229       loc_10038229
 0001:00037239       loc_10038239
 0001:00037245       loc_10038245
 0001:00037251       loc_10038251
 0001:00037258       loc_10038258
 0001:00037260       n1bv_10
 0001:00037290       loc_10038290
 0001:0003756D       loc_1003856D
 0001:00037580       _fftwf_codelet_n1bv_10_sse2
 0001:000375C0       n1bv_11
 0001:000375F0       loc_100385F0
 0001:00037AF6       loc_10038AF6
 0001:00037B00       _fftwf_codelet_n1bv_11_sse2
 0001:00037B40       n1bv_12
 0001:00037B73       loc_10038B73
 0001:00037EAF       loc_10038EAF
 0001:00037EC0       _fftwf_codelet_n1bv_12_sse2
 0001:00037F00       n1bv_128
 0001:00037F60       loc_10038F60
 0001:0003EA03       loc_1003FA03
 0001:0003EA10       _fftwf_codelet_n1bv_128_sse2
 0001:0003EA50       n1bv_13
 0001:0003EA83       loc_1003FA83
 0001:0003F079       loc_10040079
 0001:0003F080       _fftwf_codelet_n1bv_13_sse2
 0001:0003F0C0       n1bv_14
 0001:0003F100       loc_10040100
 0001:0003F638       loc_10040638
 0001:0003F640       _fftwf_codelet_n1bv_14_sse2
 0001:0003F680       n1bv_15
 0001:0003F6B3       loc_100406B3
 0001:0003FC58       loc_10040C58
 0001:0003FC60       _fftwf_codelet_n1bv_15_sse2
 0001:0003FCA0       n1bv_16
 0001:0003FCE0       loc_10040CE0
 0001:000401CE       loc_100411CE
 0001:000401E0       _fftwf_codelet_n1bv_16_sse2
 0001:00040220       n1bv_2
 0001:00040241       loc_10041241
 0001:0004028E       loc_1004128E
 0001:000402A0       _fftwf_codelet_n1bv_2_sse2
 0001:000402E0       n1bv_20
 0001:00040321       loc_10041321
 0001:00040B2F       loc_10041B2F
 0001:00040B40       _fftwf_codelet_n1bv_20_sse2
 0001:00040B90       n1bv_25
 0001:00040BE0       loc_10041BE0
 0001:00041F94       loc_10042F94
 0001:00041FA0       _fftwf_codelet_n1bv_25_sse2
 0001:00041FE0       n1bv_3
 0001:00042013       loc_10043013
 0001:000420AB       loc_100430AB
 0001:000420C0       _fftwf_codelet_n1bv_3_sse2
 0001:00042100       n1bv_32
 0001:00042150       loc_10043150
 0001:00042EE0       loc_10043EE0
 0001:00042EF0       _fftwf_codelet_n1bv_32_sse2
 0001:00042F30       n1bv_4
 0001:00042F60       loc_10043F60
 0001:00043015       loc_10044015
 0001:00043020       _fftwf_codelet_n1bv_4_sse2
 0001:00043060       n1bv_5
 0001:00043090       loc_10044090
 0001:000431CF       loc_100441CF
 0001:000431E0       _fftwf_codelet_n1bv_5_sse2
 0001:00043220       n1bv_6
 0001:00043250       loc_10044250
 0001:0004339A       loc_1004439A
 0001:000433B0       _fftwf_codelet_n1bv_6_sse2
 0001:000433F0       n1bv_64
 0001:00043450       loc_10044450
 0001:000459B7       loc_100469B7
 0001:000459C0       _fftwf_codelet_n1bv_64_sse2
 0001:00045A00       n1bv_7
 0001:00045A40       loc_10046A40
 0001:00045C8D       loc_10046C8D
 0001:00045CA0       _fftwf_codelet_n1bv_7_sse2
 0001:00045CE0       n1bv_8
 0001:00045D10       loc_10046D10
 0001:00045ED7       loc_10046ED7
 0001:00045EE0       _fftwf_codelet_n1bv_8_sse2
 0001:00045F20       n1bv_9
 0001:00045F61       loc_10046F61
 0001:000462AA       loc_100472AA
 0001:000462C0       _fftwf_codelet_n1bv_9_sse2
 0001:00046300       n1fv_10
 0001:00046333       loc_10047333
 0001:00046617       loc_10047617
 0001:00046620       _fftwf_codelet_n1fv_10_sse2
 0001:00046660       n1fv_11
 0001:00046690       loc_10047690
 0001:00046B8D       loc_10047B8D
 0001:00046BA0       _fftwf_codelet_n1fv_11_sse2
 0001:00046BE0       n1fv_12
 0001:00046C21       loc_10047C21
 0001:00046F63       loc_10047F63
 0001:00046F70       _fftwf_codelet_n1fv_12_sse2
 0001:00046FB0       n1fv_128
 0001:00047010       loc_10048010
 0001:0004D414       loc_1004E414
 0001:0004D420       _fftwf_codelet_n1fv_128_sse2
 0001:0004D460       n1fv_13
 0001:0004D493       loc_1004E493
 0001:0004DA83       loc_1004EA83
 0001:0004DA90       _fftwf_codelet_n1fv_13_sse2
 0001:0004DAD0       n1fv_14
 0001:0004DB03       loc_1004EB03
 0001:0004E037       loc_1004F037
 0001:0004E040       _fftwf_codelet_n1fv_14_sse2
 0001:0004E080       n1fv_15
 0001:0004E0C0       loc_1004F0C0
 0001:0004E67E       loc_1004F67E
 0001:0004E690       _fftwf_codelet_n1fv_15_sse2
 0001:0004E6D0       n1fv_16
 0001:0004E710       loc_1004F710
 0001:0004EBE2       loc_1004FBE2
 0001:0004EBF0       _fftwf_codelet_n1fv_16_sse2
 0001:0004EC30       n1fv_2
 0001:0004EC51       loc_1004FC51
 0001:0004EC9E       loc_1004FC9E
 0001:0004ECB0       _fftwf_codelet_n1fv_2_sse2
 0001:0004ECF0       n1fv_20
 0001:0004ED31       loc_1004FD31
 0001:0004F587       loc_10050587
 0001:0004F590       _fftwf_codelet_n1fv_20_sse2
 0001:0004F5D0       n1fv_25
 0001:0004F620       loc_10050620
 0001:000509E8       loc_100519E8
 0001:000509F0       _fftwf_codelet_n1fv_25_sse2
 0001:00050A30       n1fv_3
 0001:00050A63       loc_10051A63
 0001:00050AFB       loc_10051AFB
 0001:00050B10       _fftwf_codelet_n1fv_3_sse2
 0001:00050B50       n1fv_32
 0001:00050BA0       loc_10051BA0
 0001:00051902       loc_10052902
 0001:00051910       _fftwf_codelet_n1fv_32_sse2
 0001:00051950       n1fv_4
 0001:00051980       loc_10052980
 0001:00051A35       loc_10052A35
 0001:00051A40       _fftwf_codelet_n1fv_4_sse2
 0001:00051A80       n1fv_5
 0001:00051AB0       loc_10052AB0
 0001:00051BF3       loc_10052BF3
 0001:00051C00       _fftwf_codelet_n1fv_5_sse2
 0001:00051C40       n1fv_6
 0001:00051C70       loc_10052C70
 0001:00051DC3       loc_10052DC3
 0001:00051DD0       _fftwf_codelet_n1fv_6_sse2
 0001:00051E10       n1fv_64
 0001:00051E70       loc_10052E70
 0001:0005483B       loc_1005583B
 0001:00054850       _fftwf_codelet_n1fv_64_sse2
 0001:00054890       n1fv_7
 0001:000548C0       loc_100558C0
 0001:00054B0A       loc_10055B0A
 0001:00054B20       _fftwf_codelet_n1fv_7_sse2
 0001:00054B60       n1fv_8
 0001:00054B90       loc_10055B90
 0001:00054D68       loc_10055D68
 0001:00054D70       _fftwf_codelet_n1fv_8_sse2
 0001:00054DC0       n1fv_9
 0001:00054E00       loc_10055E00
 0001:00055132       loc_10056132
 0001:00055140       _fftwf_codelet_n1fv_9_sse2
 0001:00055180       n2bv_10
 0001:000551C0       loc_100561C0
 0001:00055439       loc_10056439
 0001:00055440       _fftwf_codelet_n2bv_10_sse2
 0001:00055480       n2bv_12
 0001:000554C0       loc_100564C0
 0001:00055780       loc_10056780
 0001:00055790       _fftwf_codelet_n2bv_12_sse2
 0001:000557D0       n2bv_14
 0001:00055820       loc_10056820
 0001:00055CE3       loc_10056CE3
 0001:00055CF0       _fftwf_codelet_n2bv_14_sse2
 0001:00055D30       n2bv_16
 0001:00055D70       loc_10056D70
 0001:000561A0       loc_100571A0
 0001:000561B0       _fftwf_codelet_n2bv_16_sse2
 0001:000561F0       n2bv_2
 0001:00056217       loc_10057217
 0001:0005624B       loc_1005724B
 0001:00056260       _fftwf_codelet_n2bv_2_sse2
 0001:000562A0       n2bv_20
 0001:000562E5       loc_100572E5
 0001:000569D6       loc_100579D6
 0001:000569E0       _fftwf_codelet_n2bv_20_sse2
 0001:00056A20       n2bv_32
 0001:00056A70       loc_10057A70
 0001:000576AA       loc_100586AA
 0001:000576C0       _fftwf_codelet_n2bv_32_sse2
 0001:00057700       n2bv_4
 0001:00057732       loc_10058732
 0001:000577A9       loc_100587A9
 0001:000577B0       _fftwf_codelet_n2bv_4_sse2
 0001:000577F0       n2bv_6
 0001:00057824       loc_10058824
 0001:0005791E       loc_1005891E
 0001:00057930       _fftwf_codelet_n2bv_6_sse2
 0001:00057990       n2bv_64
 0001:000579F0       loc_100589F0
 0001:00059C1A       loc_1005AC1A
 0001:00059C30       _fftwf_codelet_n2bv_64_sse2
 0001:00059C70       n2bv_8
 0001:00059CA4       loc_1005ACA4
 0001:00059E01       loc_1005AE01
 0001:00059E10       _fftwf_codelet_n2bv_8_sse2
 0001:00059E80       n2fv_10
 0001:00059EC0       loc_1005AEC0
 0001:0005A136       loc_1005B136
 0001:0005A140       _fftwf_codelet_n2fv_10_sse2
 0001:0005A180       n2fv_12
 0001:0005A1C0       loc_1005B1C0
 0001:0005A461       loc_1005B461
 0001:0005A470       _fftwf_codelet_n2fv_12_sse2
 0001:0005A4B0       n2fv_14
 0001:0005A4F0       loc_1005B4F0
 0001:0005A965       loc_1005B965
 0001:0005A970       _fftwf_codelet_n2fv_14_sse2
 0001:0005A9B0       n2fv_16
 0001:0005A9F0       loc_1005B9F0
 0001:0005AE04       loc_1005BE04
 0001:0005AE10       _fftwf_codelet_n2fv_16_sse2
 0001:0005AE50       n2fv_2
 0001:0005AE77       loc_1005BE77
 0001:0005AEAB       loc_1005BEAB
 0001:0005AEC0       _fftwf_codelet_n2fv_2_sse2
 0001:0005AF00       n2fv_20
 0001:0005AF45       loc_1005BF45
 0001:0005B625       loc_1005C625
 0001:0005B630       _fftwf_codelet_n2fv_20_sse2
 0001:0005B670       n2fv_32
 0001:0005B6C0       loc_1005C6C0
 0001:0005C2BB       loc_1005D2BB
 0001:0005C2D0       _fftwf_codelet_n2fv_32_sse2
 0001:0005C310       n2fv_4
 0001:0005C342       loc_1005D342
 0001:0005C3B9       loc_1005D3B9
 0001:0005C3C0       _fftwf_codelet_n2fv_4_sse2
 0001:0005C400       n2fv_6
 0001:0005C434       loc_1005D434
 0001:0005C538       loc_1005D538
 0001:0005C540       _fftwf_codelet_n2fv_6_sse2
 0001:0005C580       n2fv_64
 0001:0005C5E0       loc_1005D5E0
 0001:0005E7E5       loc_1005F7E5
 0001:0005E7F0       _fftwf_codelet_n2fv_64_sse2
 0001:0005E830       n2fv_8
 0001:0005E866       loc_1005F866
 0001:0005E9D1       loc_1005F9D1
 0001:0005E9E0       _fftwf_codelet_n2fv_8_sse2
 0001:0005EA20       n2sv_16
 0001:0005EAC0       loc_1005FAC0
 0001:0005EAC7       loc_1005FAC7
 0001:0005F7B9       loc_100607B9
 0001:0005F7C0       _fftwf_codelet_n2sv_16_sse2
 0001:0005F800       n2sv_32
 0001:0005F8C0       loc_100608C0
 0001:0005F8C7       loc_100608C7
 0001:00061F81       loc_10062F81
 0001:00061F90       _fftwf_codelet_n2sv_32_sse2
 0001:00061FD0       n2sv_4
 0001:00062030       loc_10063030
 0001:00062034       loc_10063034
 0001:0006216E       loc_1006316E
 0001:00062180       _fftwf_codelet_n2sv_4_sse2
 0001:000621C0       n2sv_64
 0001:000622A3       loc_100632A3
 0001:000622AA       loc_100632AA
 0001:00067A7F       loc_10068A7F
 0001:00067A90       _fftwf_codelet_n2sv_64_sse2
 0001:00067AD0       n2sv_8
 0001:00067B33       loc_10068B33
 0001:00067B37       loc_10068B37
 0001:00067F10       loc_10068F10
 0001:00067F20       _fftwf_codelet_n2sv_8_sse2
 0001:00067F60       q1bv_2
 0001:00067FA0       loc_10068FA0
 0001:00068075       loc_10069075
 0001:00068080       _fftwf_codelet_q1bv_2_sse2
 0001:000680A0       q1bv_4
 0001:000680E0       loc_100690E0
 0001:000685E1       loc_100695E1
 0001:000685F0       _fftwf_codelet_q1bv_4_sse2
 0001:00068610       q1bv_5
 0001:00068660       loc_10069660
 0001:000690F9       loc_1006A0F9
 0001:00069100       _fftwf_codelet_q1bv_5_sse2
 0001:00069120       q1bv_8
 0001:00069170       loc_1006A170
 0001:0006B304       loc_1006C304
 0001:0006B310       _fftwf_codelet_q1bv_8_sse2
 0001:0006B330       q1fv_2
 0001:0006B370       loc_1006C370
 0001:0006B44B       loc_1006C44B
 0001:0006B460       _fftwf_codelet_q1fv_2_sse2
 0001:0006B480       q1fv_4
 0001:0006B4C0       loc_1006C4C0
 0001:0006B9C7       loc_1006C9C7
 0001:0006B9D0       _fftwf_codelet_q1fv_4_sse2
 0001:0006B9F0       q1fv_5
 0001:0006BA40       loc_1006CA40
 0001:0006C5C3       loc_1006D5C3
 0001:0006C5D0       _fftwf_codelet_q1fv_5_sse2
 0001:0006C5F0       q1fv_8
 0001:0006C640       loc_1006D640
 0001:0006E102       loc_1006F102
 0001:0006E110       _fftwf_codelet_q1fv_8_sse2
 0001:0006E130       t1buv_10
 0001:0006E170       loc_1006F170
 0001:0006E579       loc_1006F579
 0001:0006E580       _fftwf_codelet_t1buv_10_sse2
 0001:0006E5B0       t1buv_2
 0001:0006E5E0       loc_1006F5E0
 0001:0006E644       loc_1006F644
 0001:0006E650       _fftwf_codelet_t1buv_2_sse2
 0001:0006E680       t1buv_3
 0001:0006E6C2       loc_1006F6C2
 0001:0006E78D       loc_1006F78D
 0001:0006E7A0       _fftwf_codelet_t1buv_3_sse2
 0001:0006E7D0       t1buv_4
 0001:0006E810       loc_1006F810
 0001:0006E910       loc_1006F910
 0001:0006E920       _fftwf_codelet_t1buv_4_sse2
 0001:0006E950       t1buv_5
 0001:0006E990       loc_1006F990
 0001:0006EB41       loc_1006FB41
 0001:0006EB50       _fftwf_codelet_t1buv_5_sse2
 0001:0006EB80       t1buv_6
 0001:0006EBC0       loc_1006FBC0
 0001:0006EDA1       loc_1006FDA1
 0001:0006EDB0       _fftwf_codelet_t1buv_6_sse2
 0001:0006EDE0       t1buv_7
 0001:0006EE20       loc_1006FE20
 0001:0006F118       loc_10070118
 0001:0006F120       _fftwf_codelet_t1buv_7_sse2
 0001:0006F150       t1buv_8
 0001:0006F190       loc_10070190
 0001:0006F416       loc_10070416
 0001:0006F420       _fftwf_codelet_t1buv_8_sse2
 0001:0006F450       t1buv_9
 0001:0006F492       loc_10070492
 0001:0006F905       loc_10070905
 0001:0006F910       _fftwf_codelet_t1buv_9_sse2
 0001:0006F940       t1bv_10
 0001:0006F981       loc_10070981
 0001:0006FD0C       loc_10070D0C
 0001:0006FD20       _fftwf_codelet_t1bv_10_sse2
 0001:0006FD50       t1bv_12
 0001:0006FD90       loc_10070D90
 0001:000701B4       loc_100711B4
 0001:000701C0       _fftwf_codelet_t1bv_12_sse2
 0001:000701F0       t1bv_15
 0001:00070230       loc_10071230
 0001:000708FF       loc_100718FF
 0001:00070910       _fftwf_codelet_t1bv_15_sse2
 0001:00070940       t1bv_16
 0001:00070990       loc_10071990
 0001:00070F78       loc_10071F78
 0001:00070F80       _fftwf_codelet_t1bv_16_sse2
 0001:00070FB0       t1bv_2
 0001:00070FE1       loc_10071FE1
 0001:00071025       loc_10072025
 0001:00071030       _fftwf_codelet_t1bv_2_sse2
 0001:00071060       t1bv_20
 0001:000710B0       loc_100720B0
 0001:00071998       loc_10072998
 0001:000719A0       _fftwf_codelet_t1bv_20_sse2
 0001:000719D0       t1bv_25
 0001:00071A30       loc_10072A30
 0001:000733A5       loc_100743A5
 0001:000733B0       _fftwf_codelet_t1bv_25_sse2
 0001:000733E0       t1bv_3
 0001:00073430       loc_10074430
 0001:000734CF       loc_100744CF
 0001:000734E0       _fftwf_codelet_t1bv_3_sse2
 0001:00073510       t1bv_32
 0001:00073570       loc_10074570
 0001:00074544       loc_10075544
 0001:00074550       _fftwf_codelet_t1bv_32_sse2
 0001:00074580       t1bv_4
 0001:000745C0       loc_100755C0
 0001:00074686       loc_10075686
 0001:00074690       _fftwf_codelet_t1bv_4_sse2
 0001:000746C0       t1bv_5
 0001:00074700       loc_10075700
 0001:0007486E       loc_1007586E
 0001:00074880       _fftwf_codelet_t1bv_5_sse2
 0001:000748B0       t1bv_6
 0001:000748F0       loc_100758F0
 0001:00074A83       loc_10075A83
 0001:00074A90       _fftwf_codelet_t1bv_6_sse2
 0001:00074AC0       t1bv_64
 0001:00074B20       loc_10075B20
 0001:00077941       loc_10078941
 0001:00077950       _fftwf_codelet_t1bv_64_sse2
 0001:00077980       t1bv_7
 0001:000779C0       loc_100789C0
 0001:00077C6D       loc_10078C6D
 0001:00077C80       _fftwf_codelet_t1bv_7_sse2
 0001:00077CB0       t1bv_8
 0001:00077D00       loc_10078D00
 0001:00077F21       loc_10078F21
 0001:00077F30       _fftwf_codelet_t1bv_8_sse2
 0001:00077F60       t1bv_9
 0001:00077FB0       loc_10078FB0
 0001:00078396       loc_10079396
 0001:000783A0       _fftwf_codelet_t1bv_9_sse2
 0001:000783D0       t1fuv_10
 0001:00078410       loc_10079410
 0001:0007881C       loc_1007981C
 0001:00078830       _fftwf_codelet_t1fuv_10_sse2
 0001:00078860       t1fuv_2
 0001:00078890       loc_10079890
 0001:000788F4       loc_100798F4
 0001:00078900       _fftwf_codelet_t1fuv_2_sse2
 0001:00078930       t1fuv_3
 0001:00078972       loc_10079972
 0001:00078A3D       loc_10079A3D
 0001:00078A50       _fftwf_codelet_t1fuv_3_sse2
 0001:00078A80       t1fuv_4
 0001:00078AB3       loc_10079AB3
 0001:00078BB4       loc_10079BB4
 0001:00078BC0       _fftwf_codelet_t1fuv_4_sse2
 0001:00078BF0       t1fuv_5
 0001:00078C24       loc_10079C24
 0001:00078DCE       loc_10079DCE
 0001:00078DE0       _fftwf_codelet_t1fuv_5_sse2
 0001:00078E10       t1fuv_6
 0001:00078E50       loc_10079E50
 0001:0007902F       loc_1007A02F
 0001:00079040       _fftwf_codelet_t1fuv_6_sse2
 0001:00079070       t1fuv_7
 0001:000790B0       loc_1007A0B0
 0001:000793A7       loc_1007A3A7
 0001:000793B0       _fftwf_codelet_t1fuv_7_sse2
 0001:000793E0       t1fuv_8
 0001:00079420       loc_1007A420
 0001:000796A6       loc_1007A6A6
 0001:000796B0       _fftwf_codelet_t1fuv_8_sse2
 0001:000796E0       t1fuv_9
 0001:00079720       loc_1007A720
 0001:00079B72       loc_1007AB72
 0001:00079B80       _fftwf_codelet_t1fuv_9_sse2
 0001:00079BB0       t1fv_10
 0001:00079BF1       loc_1007ABF1
 0001:00079F82       loc_1007AF82
 0001:00079F90       _fftwf_codelet_t1fv_10_sse2
 0001:00079FC0       t1fv_12
 0001:0007A002       loc_1007B002
 0001:0007A45F       loc_1007B45F
 0001:0007A470       _fftwf_codelet_t1fv_12_sse2
 0001:0007A4A0       t1fv_15
 0001:0007A4E0       loc_1007B4E0
 0001:0007ABE8       loc_1007BBE8
 0001:0007ABF0       _fftwf_codelet_t1fv_15_sse2
 0001:0007AC20       t1fv_16
 0001:0007AC70       loc_1007BC70
 0001:0007B259       loc_1007C259
 0001:0007B260       _fftwf_codelet_t1fv_16_sse2
 0001:0007B290       t1fv_2
 0001:0007B2C1       loc_1007C2C1
 0001:0007B305       loc_1007C305
 0001:0007B310       _fftwf_codelet_t1fv_2_sse2
 0001:0007B340       t1fv_20
 0001:0007B390       loc_1007C390
 0001:0007BCAD       loc_1007CCAD
 0001:0007BCC0       _fftwf_codelet_t1fv_20_sse2
 0001:0007BCF0       t1fv_25
 0001:0007BD50       loc_1007CD50
 0001:0007D415       loc_1007E415
 0001:0007D420       _fftwf_codelet_t1fv_25_sse2
 0001:0007D450       t1fv_3
 0001:0007D4A0       loc_1007E4A0
 0001:0007D53C       loc_1007E53C
 0001:0007D550       _fftwf_codelet_t1fv_3_sse2
 0001:0007D580       t1fv_32
 0001:0007D5D6       loc_1007E5D6
 0001:0007E4E3       loc_1007F4E3
 0001:0007E4F0       _fftwf_codelet_t1fv_32_sse2
 0001:0007E520       t1fv_4
 0001:0007E560       loc_1007F560
 0001:0007E624       loc_1007F624
 0001:0007E630       _fftwf_codelet_t1fv_4_sse2
 0001:0007E660       t1fv_5
 0001:0007E6A0       loc_1007F6A0
 0001:0007E807       loc_1007F807
 0001:0007E810       _fftwf_codelet_t1fv_5_sse2
 0001:0007E840       t1fv_6
 0001:0007E880       loc_1007F880
 0001:0007EA15       loc_1007FA15
 0001:0007EA20       _fftwf_codelet_t1fv_6_sse2
 0001:0007EA50       t1fv_64
 0001:0007EAB0       loc_1007FAB0
 0001:000814C5       loc_100824C5
 0001:000814D0       _fftwf_codelet_t1fv_64_sse2
 0001:00081500       t1fv_7
 0001:00081540       loc_10082540
 0001:000817DC       loc_100827DC
 0001:000817F0       _fftwf_codelet_t1fv_7_sse2
 0001:00081820       t1fv_8
 0001:00081870       loc_10082870
 0001:00081A96       loc_10082A96
 0001:00081AA0       _fftwf_codelet_t1fv_8_sse2
 0001:00081AD0       t1fv_9
 0001:00081B20       loc_10082B20
 0001:00081EF0       loc_10082EF0
 0001:00081F00       _fftwf_codelet_t1fv_9_sse2
 0001:00081F30       t1sv_16
 0001:00081F93       loc_10082F93
 0001:00082C2F       loc_10083C2F
 0001:00082C40       _fftwf_codelet_t1sv_16_sse2
 0001:00082C70       t1sv_2
 0001:00082CB1       loc_10083CB1
 0001:00082D19       loc_10083D19
 0001:00082D20       _fftwf_codelet_t1sv_2_sse2
 0001:00082D50       t1sv_32
 0001:00082DD0       loc_10083DD0
 0001:00085B19       loc_10086B19
 0001:00085B20       _fftwf_codelet_t1sv_32_sse2
 0001:00085B50       t1sv_4
 0001:00085B94       loc_10086B94
 0001:00085CDF       loc_10086CDF
 0001:00085CF0       _fftwf_codelet_t1sv_4_sse2
 0001:00085D20       t1sv_8
 0001:00085D70       loc_10086D70
 0001:0008611B       loc_1008711B
 0001:00086130       _fftwf_codelet_t1sv_8_sse2
 0001:00086160       t2bv_10
 0001:000861B0       loc_100871B0
 0001:000864D1       loc_100874D1
 0001:000864E0       _fftwf_codelet_t2bv_10_sse2
 0001:00086510       t2bv_16
 0001:00086560       loc_10087560
 0001:00086A95       loc_10087A95
 0001:00086AA0       _fftwf_codelet_t2bv_16_sse2
 0001:00086AD0       t2bv_2
 0001:00086B05       loc_10087B05
 0001:00086B3D       loc_10087B3D
 0001:00086B50       _fftwf_codelet_t2bv_2_sse2
 0001:00086B80       t2bv_20
 0001:00086BE0       loc_10087BE0
 0001:000874DE       loc_100884DE
 0001:000874F0       _fftwf_codelet_t2bv_20_sse2
 0001:00087530       t2bv_25
 0001:000875A0       loc_100885A0
 0001:00088B5A       loc_10089B5A
 0001:00088B70       _fftwf_codelet_t2bv_25_sse2
 0001:00088BA0       t2bv_32
 0001:00088C10       loc_10089C10
 0001:00089A76       loc_1008AA76
 0001:00089A80       _fftwf_codelet_t2bv_32_sse2
 0001:00089AB0       t2bv_4
 0001:00089AF5       loc_1008AAF5
 0001:00089BA4       loc_1008ABA4
 0001:00089BB0       _fftwf_codelet_t2bv_4_sse2
 0001:00089BE0       t2bv_5
 0001:00089C21       loc_1008AC21
 0001:00089D60       loc_1008AD60
 0001:00089D70       _fftwf_codelet_t2bv_5_sse2
 0001:00089DA0       t2bv_64
 0001:00089E10       loc_1008AE10
 0001:0008C4C4       loc_1008D4C4
 0001:0008C4D0       _fftwf_codelet_t2bv_64_sse2
 0001:0008C500       t2bv_8
 0001:0008C544       loc_1008D544
 0001:0008C71F       loc_1008D71F
 0001:0008C730       _fftwf_codelet_t2bv_8_sse2
 0001:0008C760       t2fv_10
 0001:0008C7B0       loc_1008D7B0
 0001:0008CAC5       loc_1008DAC5
 0001:0008CAD0       _fftwf_codelet_t2fv_10_sse2
 0001:0008CB00       t2fv_16
 0001:0008CB50       loc_1008DB50
 0001:0008D0AE       loc_1008E0AE
 0001:0008D0C0       _fftwf_codelet_t2fv_16_sse2
 0001:0008D0F0       t2fv_2
 0001:0008D125       loc_1008E125
 0001:0008D15D       loc_1008E15D
 0001:0008D170       _fftwf_codelet_t2fv_2_sse2
 0001:0008D1A0       t2fv_20
 0001:0008D200       loc_1008E200
 0001:0008DB2A       loc_1008EB2A
 0001:0008DB40       _fftwf_codelet_t2fv_20_sse2
 0001:0008DB70       t2fv_25
 0001:0008DBE0       loc_1008EBE0
 0001:0008F01D       loc_1009001D
 0001:0008F030       _fftwf_codelet_t2fv_25_sse2
 0001:0008F060       t2fv_32
 0001:0008F0C5       loc_100900C5
 0001:0008FFE9       loc_10090FE9
 0001:00090000       _fftwf_codelet_t2fv_32_sse2
 0001:00090030       t2fv_4
 0001:00090070       loc_10091070
 0001:0009011A       loc_1009111A
 0001:00090130       _fftwf_codelet_t2fv_4_sse2
 0001:00090160       t2fv_5
 0001:000901A0       loc_100911A0
 0001:000902DB       loc_100912DB
 0001:000902F0       _fftwf_codelet_t2fv_5_sse2
 0001:00090320       t2fv_64
 0001:00090396       loc_10091396
 0001:00092FB2       loc_10093FB2
 0001:00092FC0       _fftwf_codelet_t2fv_64_sse2
 0001:00092FF0       t2fv_8
 0001:00093034       loc_10094034
 0001:0009320E       loc_1009420E
 0001:00093220       _fftwf_codelet_t2fv_8_sse2
 0001:00093250       t2sv_16
 0001:000932B0       loc_100942B0
 0001:0009440E       loc_1009540E
 0001:00094420       _fftwf_codelet_t2sv_16_sse2
 0001:00094450       t2sv_32
 0001:000944B3       loc_100954B3
 0001:00097132       loc_10098132
 0001:00097140       _fftwf_codelet_t2sv_32_sse2
 0001:00097170       t2sv_4
 0001:000971B5       loc_100981B5
 0001:0009731B       loc_1009831B
 0001:00097330       _fftwf_codelet_t2sv_4_sse2
 0001:00097360       t2sv_8
 0001:000973B0       loc_100983B0
 0001:000978D7       loc_100988D7
 0001:000978E0       _fftwf_codelet_t2sv_8_sse2
 0001:00097910       t3bv_10
 0001:00097951       loc_10098951
 0001:00097DD0       loc_10098DD0
 0001:00097DE0       _fftwf_codelet_t3bv_10_sse2
 0001:00097E10       t3bv_16
 0001:00097E60       loc_10098E60
 0001:000986C2       loc_100996C2
 0001:000986D0       _fftwf_codelet_t3bv_16_sse2
 0001:00098700       t3bv_20
 0001:00098750       loc_10099750
 0001:00099332       loc_1009A332
 0001:00099340       _fftwf_codelet_t3bv_20_sse2
 0001:00099370       t3bv_25
 0001:000993C0       loc_1009A3C0
 0001:0009AFC9       loc_1009BFC9
 0001:0009AFD0       _fftwf_codelet_t3bv_25_sse2
 0001:0009B000       t3bv_32
 0001:0009B050       loc_1009C050
 0001:0009C708       loc_1009D708
 0001:0009C710       _fftwf_codelet_t3bv_32_sse2
 0001:0009C740       t3bv_4
 0001:0009C780       loc_1009D780
 0001:0009C873       loc_1009D873
 0001:0009C880       _fftwf_codelet_t3bv_4_sse2
 0001:0009C8B0       t3bv_5
 0001:0009C8F0       loc_1009D8F0
 0001:0009CA92       loc_1009DA92
 0001:0009CAA0       _fftwf_codelet_t3bv_5_sse2
 0001:0009CAD0       t3bv_8
 0001:0009CB10       loc_1009DB10
 0001:0009CDB3       loc_1009DDB3
 0001:0009CDC0       _fftwf_codelet_t3bv_8_sse2
 0001:0009CDF0       t3fv_10
 0001:0009CE31       loc_1009DE31
 0001:0009D2D2       loc_1009E2D2
 0001:0009D2E0       _fftwf_codelet_t3fv_10_sse2
 0001:0009D310       t3fv_16
 0001:0009D360       loc_1009E360
 0001:0009DBE9       loc_1009EBE9
 0001:0009DBF0       _fftwf_codelet_t3fv_16_sse2
 0001:0009DC20       t3fv_20
 0001:0009DC70       loc_1009EC70
 0001:0009E8C7       loc_1009F8C7
 0001:0009E8D0       _fftwf_codelet_t3fv_20_sse2
 0001:0009E900       t3fv_25
 0001:0009E950       loc_1009F950
 0001:000A0499       loc_100A1499
 0001:000A04A0       _fftwf_codelet_t3fv_25_sse2
 0001:000A04D0       t3fv_32
 0001:000A0520       loc_100A1520
 0001:000A1AA1       loc_100A2AA1
 0001:000A1AB0       _fftwf_codelet_t3fv_32_sse2
 0001:000A1AE0       t3fv_4
 0001:000A1B20       loc_100A2B20
 0001:000A1C1E       loc_100A2C1E
 0001:000A1C30       _fftwf_codelet_t3fv_4_sse2
 0001:000A1C60       t3fv_5
 0001:000A1CA0       loc_100A2CA0
 0001:000A1E48       loc_100A2E48
 0001:000A1E50       _fftwf_codelet_t3fv_5_sse2
 0001:000A1E80       t3fv_8
 0001:000A1EC0       loc_100A2EC0
 0001:000A217D       loc_100A317D
 0001:000A2190       _fftwf_codelet_t3fv_8_sse2
 0001:000A21C0       _fftwf_malloc_plain
 0001:000A21CF       loc_100A31CF
 0001:000A222A       loc_100A322A
 0001:000A2240       _fftwf_assertion_failed
 0001:000A2290       _fftwf_nbuf
 0001:000A22A4       loc_100A32A4
 0001:000A22B7       loc_100A32B7
 0001:000A22BD       loc_100A32BD
 0001:000A22C3       loc_100A32C3
 0001:000A22DA       loc_100A32DA
 0001:000A22E0       loc_100A32E0
 0001:000A22EE       loc_100A32EE
 0001:000A22F5       loc_100A32F5
 0001:000A2300       _fftwf_nbuf_redundant
 0001:000A2340       loc_100A3340
 0001:000A2343       loc_100A3343
 0001:000A2352       loc_100A3352
 0001:000A235E       loc_100A335E
 0001:000A2367       loc_100A3367
 0001:000A236D       loc_100A336D
 0001:000A2384       loc_100A3384
 0001:000A2390       loc_100A3390
 0001:000A239F       loc_100A339F
 0001:000A23A1       loc_100A33A1
 0001:000A23AC       loc_100A33AC
 0001:000A23B5       loc_100A33B5
 0001:000A23D0       _fftwf_cpy1d
 0001:000A2420       loc_100A3420
 0001:000A2440       loc_100A3440
 0001:000A245F       loc_100A345F
 0001:000A2480       loc_100A3480
 0001:000A248D       loc_100A348D
 0001:000A24C1       loc_100A34C1
 0001:000A24EF       loc_100A34EF
 0001:000A24F5       loc_100A34F5
 0001:000A2519       loc_100A3519
 0001:000A2541       loc_100A3541
 0001:000A25F3       loc_100A35F3
 0001:000A2610       loc_100A3610
 0001:000A2642       loc_100A3642
 0001:000A2661       loc_100A3661
 0001:000A26BC       loc_100A36BC
 0001:000A26D0       loc_100A36D0
 0001:000A26EE       loc_100A36EE
 0001:000A2713       loc_100A3713
 0001:000A2736       loc_100A3736
 0001:000A2748       loc_100A3748
 0001:000A2755       loc_100A3755
 0001:000A2760       _fftwf_cpy2d_pair
 0001:000A27A0       loc_100A37A0
 0001:000A2830       loc_100A3830
 0001:000A28A7       loc_100A38A7
 0001:000A28E0       loc_100A38E0
 0001:000A290C       loc_100A390C
 0001:000A2936       loc_100A3936
 0001:000A2940       _fftwf_cpy2d_pair_co
 0001:000A2950       loc_100A3950
 0001:000A2958       loc_100A3958
 0001:000A2983       loc_100A3983
 0001:000A29B0       _fftwf_cpy2d
 0001:000A29E3       loc_100A39E3
 0001:000A2A00       loc_100A3A00
 0001:000A2A30       loc_100A3A30
 0001:000A2A55       loc_100A3A55
 0001:000A2A75       loc_100A3A75
 0001:000A2A88       loc_100A3A88
 0001:000A2A97       loc_100A3A97
 0001:000A2AB3       loc_100A3AB3
 0001:000A2B30       loc_100A3B30
 0001:000A2BB0       loc_100A3BB0
 0001:000A2BF9       loc_100A3BF9
 0001:000A2C21       loc_100A3C21
 0001:000A2C24       loc_100A3C24
 0001:000A2C44       loc_100A3C44
 0001:000A2C72       loc_100A3C72
 0001:000A2CB0       loc_100A3CB0
 0001:000A2D30       loc_100A3D30
 0001:000A2DA1       loc_100A3DA1
 0001:000A2DD0       loc_100A3DD0
 0001:000A2DF5       loc_100A3DF5
 0001:000A2E23       loc_100A3E23
 0001:000A2E60       loc_100A3E60
 0001:000A2EE0       loc_100A3EE0
 0001:000A2F29       loc_100A3F29
 0001:000A2F51       loc_100A3F51
 0001:000A2F54       loc_100A3F54
 0001:000A2F74       loc_100A3F74
 0001:000A2F9B       loc_100A3F9B
 0001:000A2FB0       _fftwf_cpy2d_ci
 0001:000A2FBF       loc_100A3FBF
 0001:000A2FCA       loc_100A3FCA
 0001:000A2FF7       loc_100A3FF7
 0001:000A3020       _fftwf_cpy2d_co
 0001:000A302F       loc_100A402F
 0001:000A303A       loc_100A403A
 0001:000A3067       loc_100A4067
 0001:000A3090       dotile
 0001:000A30F0       dotile_buf
 0001:000A3180       _fftwf_cpy2d_tiled
 0001:000A31A4       loc_100A41A4
 0001:000A31B0       loc_100A41B0
 0001:000A31C2       loc_100A41C2
 0001:000A3220       _fftwf_cpy2d_tiledbuf
 0001:000A325C       loc_100A425C
 0001:000A3263       loc_100A4263
 0001:000A3275       loc_100A4275
 0001:000A32F0       _fftwf_md5putb
 0001:000A3300       loc_100A4300
 0001:000A3320       loc_100A4320
 0001:000A3330       doblock
 0001:000A3360       loc_100A4360
 0001:000A3410       loc_100A4410
 0001:000A3421       $LN4_3
 0001:000A342D       $LN3_3
 0001:000A343B       $LN2_3
 0001:000A3443       $LN1_3
 0001:000A344B       loc_100A444B
 0001:000A344D       loc_100A444D
 0001:000A34B4       off_100A44B4
 0001:000A34D0       _fftwf_md5end
 0001:000A3500       loc_100A4500
 0001:000A3510       loc_100A4510
 0001:000A352E       loc_100A452E
 0001:000A3539       loc_100A4539
 0001:000A3540       loc_100A4540
 0001:000A355D       loc_100A455D
 0001:000A3570       _fftwf_ops_madd2
 0001:000A35A0       really_pickdim
 0001:000A35C0       loc_100A45C0
 0001:000A35CD       loc_100A45CD
 0001:000A35D2       loc_100A45D2
 0001:000A35E0       loc_100A45E0
 0001:000A35EE       loc_100A45EE
 0001:000A3600       loc_100A4600
 0001:000A360D       loc_100A460D
 0001:000A3616       loc_100A4616
 0001:000A3622       loc_100A4622
 0001:000A362D       loc_100A462D
 0001:000A3648       loc_100A4648
 0001:000A3650       _fftwf_pickdim
 0001:000A3678       loc_100A4678
 0001:000A3687       loc_100A4687
 0001:000A36A7       loc_100A46A7
 0001:000A36B4       loc_100A46B4
 0001:000A36B9       loc_100A46B9
 0001:000A36C6       loc_100A46C6
 0001:000A36D4       loc_100A46D4
 0001:000A36E1       loc_100A46E1
 0001:000A36EA       loc_100A46EA
 0001:000A36F2       loc_100A46F2
 0001:000A3711       loc_100A4711
 0001:000A3714       loc_100A4714
 0001:000A371B       loc_100A471B
 0001:000A372B       loc_100A472B
 0001:000A3737       loc_100A4737
 0001:000A3740       _fftwf_plan_awake
 0001:000A375F       loc_100A475F
 0001:000A3770       sgrow
 0001:000A37A2       loc_100A47A2
 0001:000A37C9       loc_100A47C9
 0001:000A37DB       locret_100A47DB
 0001:000A37E0       register_solver
 0001:000A3807       loc_100A4807
 0001:000A3830       loc_100A4830
 0001:000A3860       loc_100A4860
 0001:000A3870       slookup
 0001:000A3881       loc_100A4881
 0001:000A38A8       loc_100A48A8
 0001:000A38C0       loc_100A48C0
 0001:000A38DC       loc_100A48DC
 0001:000A38E0       loc_100A48E0
 0001:000A38E5       loc_100A48E5
 0001:000A38EC       loc_100A48EC
 0001:000A38F4       loc_100A48F4
 0001:000A3900       loc_100A4900
 0001:000A3920       signature_of_configuration
 0001:000A3970       loc_100A4970
 0001:000A3980       loc_100A4980
 0001:000A39A1       loc_100A49A1
 0001:000A39B0       loc_100A49B0
 0001:000A39CF       loc_100A49CF
 0001:000A39EA       loc_100A49EA
 0001:000A3A00       md5hash
 0001:000A3A70       htab_lookup
 0001:000A3AA1       loc_100A4AA1
 0001:000A3B26       loc_100A4B26
 0001:000A3B49       loc_100A4B49
 0001:000A3B60       loc_100A4B60
 0001:000A3B63       loc_100A4B63
 0001:000A3B71       loc_100A4B71
 0001:000A3B7C       loc_100A4B7C
 0001:000A3B88       loc_100A4B88
 0001:000A3B90       fill_slot
 0001:000A3C34       loc_100A4C34
 0001:000A3C50       hinsert0
 0001:000A3C90       loc_100A4C90
 0001:000A3C9B       loc_100A4C9B
 0001:000A3CB4       loc_100A4CB4
 0001:000A3CD0       rehash
 0001:000A3D06       loc_100A4D06
 0001:000A3D12       loc_100A4D12
 0001:000A3D28       loc_100A4D28
 0001:000A3D46       loc_100A4D46
 0001:000A3D4C       loc_100A4D4C
 0001:000A3D62       loc_100A4D62
 0001:000A3D70       htab_insert
 0001:000A3DA0       loc_100A4DA0
 0001:000A3E1F       loc_100A4E1F
 0001:000A3E48       loc_100A4E48
 0001:000A3E51       loc_100A4E51
 0001:000A3E68       loc_100A4E68
 0001:000A3E6B       loc_100A4E6B
 0001:000A3E79       loc_100A4E79
 0001:000A3E84       loc_100A4E84
 0001:000A3EA2       loc_100A4EA2
 0001:000A3EC5       loc_100A4EC5
 0001:000A3EE0       hinsert
 0001:000A3F01       loc_100A4F01
 0001:000A3F20       evaluate_plan
 0001:000A3F50       loc_100A4F50
 0001:000A3F6C       estimate
 0001:000A3F97       loc_100A4F97
 0001:000A3FA8       loc_100A4FA8
 0001:000A3FC1       loc_100A4FC1
 0001:000A3FD2       loc_100A4FD2
 0001:000A3FE0       invoke_solver
 0001:000A4050       timeout_p
 0001:000A406A       loc_100A506A
 0001:000A40AA       loc_100A50AA
 0001:000A40C0       search0
 0001:000A40F2       loc_100A50F2
 0001:000A4100       loc_100A5100
 0001:000A4103       loc_100A5103
 0001:000A418D       loc_100A518D
 0001:000A41BE       loc_100A51BE
 0001:000A420E       loc_100A520E
 0001:000A4228       loc_100A5228
 0001:000A4244       loc_100A5244
 0001:000A4246       loc_100A5246
 0001:000A425C       loc_100A525C
 0001:000A4273       loc_100A5273
 0001:000A428F       loc_100A528F
 0001:000A42AB       loc_100A52AB
 0001:000A42C0       search
 0001:000A42F1       loc_100A52F1
 0001:000A430D       loc_100A530D
 0001:000A4386       loc_100A5386
 0001:000A43A8       loc_100A53A8
 0001:000A43AF       loc_100A53AF
 0001:000A43D0       loc_100A53D0
 0001:000A44A4       loc_100A54A4
 0001:000A44B6       loc_100A54B6
 0001:000A44C0       loc_100A54C0
 0001:000A44ED       loc_100A54ED
 0001:000A451F       loc_100A551F
 0001:000A453D       loc_100A553D
 0001:000A454F       loc_100A554F
 0001:000A4561       loc_100A5561
 0001:000A457B       loc_100A557B
 0001:000A458C       loc_100A558C
 0001:000A45A8       loc_100A55A8
 0001:000A45C4       loc_100A55C4
 0001:000A45CE       loc_100A55CE
 0001:000A45D4       loc_100A55D4
 0001:000A45DA       loc_100A55DA
 0001:000A4616       loc_100A5616
 0001:000A4620       mkplan_10
 0001:000A4654       loc_100A5654
 0001:000A46D5       loc_100A56D5
 0001:000A46F9       loc_100A56F9
 0001:000A4715       loc_100A5715
 0001:000A4729       loc_100A5729
 0001:000A478C       loc_100A578C
 0001:000A479B       loc_100A579B
 0001:000A479F       do_search
 0001:000A47D6       wisdom_is_bogus
 0001:000A47F2       loc_100A57F2
 0001:000A480D       loc_100A580D
 0001:000A4830       loc_100A5830
 0001:000A4838       loc_100A5838
 0001:000A483C       skip_search
 0001:000A4848       loc_100A5848
 0001:000A4889       loc_100A5889
 0001:000A4897       loc_100A5897
 0001:000A48B0       forget
 0001:000A48DC       loc_100A58DC
 0001:000A4903       loc_100A5903
 0001:000A491A       loc_100A591A
 0001:000A4941       loc_100A5941
 0001:000A4950       exprt
 0001:000A49B0       loc_100A59B0
 0001:000A49D8       loc_100A59D8
 0001:000A49E8       loc_100A59E8
 0001:000A4A23       loc_100A5A23
 0001:000A4A38       loc_100A5A38
 0001:000A4A60       imprt
 0001:000A4B44       loc_100A5B44
 0001:000A4B7B       loc_100A5B7B
 0001:000A4BA0       loc_100A5BA0
 0001:000A4BA4       loc_100A5BA4
 0001:000A4C03       loc_100A5C03
 0001:000A4C1F       loc_100A5C1F
 0001:000A4C23       loc_100A5C23
 0001:000A4C28       loc_100A5C28
 0001:000A4C3E       loc_100A5C3E
 0001:000A4C6D       loc_100A5C6D
 0001:000A4CF8       loc_100A5CF8
 0001:000A4D04       loc_100A5D04
 0001:000A4D43       loc_100A5D43
 0001:000A4D80       loc_100A5D80
 0001:000A4DCD       loc_100A5DCD
 0001:000A4DE7       loc_100A5DE7
 0001:000A4E04       loc_100A5E04
 0001:000A4E15       loc_100A5E15
 0001:000A4E2F       bad
 0001:000A4E46       loc_100A5E46
 0001:000A4E51       loc_100A5E51
 0001:000A4E70       _fftwf_mkplanner
 0001:000A4ECB       loc_100A5ECB
 0001:000A4FA5       loc_100A5FA5
 0001:000A4FC0       _fftwf_planner_destroy
 0001:000A4FEA       loc_100A5FEA
 0001:000A5000       loc_100A6000
 0001:000A5018       loc_100A6018
 0001:000A5034       loc_100A6034
 0001:000A5044       loc_100A6044
 0001:000A5054       loc_100A6054
 0001:000A5067       loc_100A6067
 0001:000A5080       _fftwf_mkplan_d
 0001:000A50A0       loc_100A60A0
 0001:000A50B0       _fftwf_mkplan_f_d
 0001:000A511B       loc_100A611B
 0001:000A5140       _fftwf_safe_mulmod
 0001:000A5147       loc_100A6147
 0001:000A5151       loc_100A6151
 0001:000A5158       loc_100A6158
 0001:000A516A       loc_100A616A
 0001:000A517C       loc_100A617C
 0001:000A517E       loc_100A617E
 0001:000A5183       loc_100A6183
 0001:000A5190       _fftwf_power_mod
 0001:000A51A1       loc_100A61A1
 0001:000A51B1       loc_100A61B1
 0001:000A51DF       loc_100A61DF
 0001:000A51E9       loc_100A61E9
 0001:000A521F       loc_100A621F
 0001:000A5240       get_prime_factors
 0001:000A5253       loc_100A6253
 0001:000A525F       loc_100A625F
 0001:000A5265       loc_100A6265
 0001:000A5270       loc_100A6270
 0001:000A5280       loc_100A6280
 0001:000A528E       loc_100A628E
 0001:000A529A       loc_100A629A
 0001:000A52B0       _fftwf_find_generator
 0001:000A52E0       loc_100A62E0
 0001:000A5300       loc_100A6300
 0001:000A531E       loc_100A631E
 0001:000A5324       loc_100A6324
 0001:000A5340       _fftwf_first_divisor
 0001:000A5353       loc_100A6353
 0001:000A535B       loc_100A635B
 0001:000A5365       loc_100A6365
 0001:000A537A       loc_100A637A
 0001:000A537C       locret_100A637C
 0001:000A537D       loc_100A637D
 0001:000A5380       _fftwf_is_prime
 0001:000A5398       loc_100A6398
 0001:000A53A0       _fftwf_next_prime
 0001:000A53A3       loc_100A63A3
 0001:000A53B6       loc_100A63B6
 0001:000A53BD       loc_100A63BD
 0001:000A53C1       loc_100A63C1
 0001:000A53C4       loc_100A63C4
 0001:000A53D0       loc_100A63D0
 0001:000A53E5       loc_100A63E5
 0001:000A53F0       _fftwf_factors_into
 0001:000A5400       loc_100A6400
 0001:000A5410       loc_100A6410
 0001:000A541E       loc_100A641E
 0001:000A5428       loc_100A6428
 0001:000A5440       isqrt_maybe
 0001:000A5456       loc_100A6456
 0001:000A5460       loc_100A6460
 0001:000A5490       _fftwf_choose_radix
 0001:000A54A2       loc_100A64A2
 0001:000A54B0       loc_100A64B0
 0001:000A54C6       loc_100A64C6
 0001:000A54D0       myputs
 0001:000A54E0       loc_100A64E0
 0001:000A54F7       loc_100A64F7
 0001:000A5500       putint
 0001:000A5530       loc_100A6530
 0001:000A5557       loc_100A6557
 0001:000A5580       putulong
 0001:000A55A0       loc_100A65A0
 0001:000A55C0       loc_100A65C0
 0001:000A55D0       loc_100A65D0
 0001:000A5600       vprint
 0001:000A5624       loc_100A6624
 0001:000A563E       loc_100A663E
 0001:000A565F       $LN30
 0001:000A567A       $LN29
 0001:000A5690       $LN28
 0001:000A56A8       $LN25
 0001:000A56BE       $LN23
 0001:000A56E7       $LN21
 0001:000A56FC       loc_100A66FC
 0001:000A5708       loc_100A6708
 0001:000A571C       loc_100A671C
 0001:000A5728       loc_100A6728
 0001:000A5741       putival
 0001:000A574E       $LN15
 0001:000A5769       $LN14
 0001:000A5784       $LN13
 0001:000A57A0       loc_100A67A0
 0001:000A57B3       $LN12
 0001:000A57BB       $LN11_4
 0001:000A57D3       $LN8_3
 0001:000A57EB       $LN5_2
 0001:000A5800       putnull
 0001:000A5810       loc_100A6810
 0001:000A5827       loc_100A6827
 0001:000A583A       loc_100A683A
 0001:000A5840       off_100A6840
 0001:000A5878       byte_100A6878
 0001:000A58D0       print_14
 0001:000A58F0       _fftwf_printer_destroy
 0001:000A5904       loc_100A6904
 0001:000A5920       unsolvable_hash
 0001:000A5930       loc_100A6930
 0001:000A594F       loc_100A694F
 0001:000A5960       unsolvable_print
 0001:000A5980       _fftwf_rader_tl_insert
 0001:000A59D5       loc_100A69D5
 0001:000A59FD       loc_100A69FD
 0001:000A5A10       _fftwf_rader_tl_delete
 0001:000A5A20       loc_100A6A20
 0001:000A5A30       loc_100A6A30
 0001:000A5A55       loc_100A6A55
 0001:000A5A5F       loc_100A6A5F
 0001:000A5A60       locret_100A6A60
 0001:000A5A70       mygets
 0001:000A5A80       loc_100A6A80
 0001:000A5A91       loc_100A6A91
 0001:000A5A9A       loc_100A6A9A
 0001:000A5AA8       loc_100A6AA8
 0001:000A5AC1       loc_100A6AC1
 0001:000A5AD0       getlong
 0001:000A5AEE       loc_100A6AEE
 0001:000A5AF7       loc_100A6AF7
 0001:000A5B01       loc_100A6B01
 0001:000A5B1C       loc_100A6B1C
 0001:000A5B25       loc_100A6B25
 0001:000A5B27       loc_100A6B27
 0001:000A5B33       loc_100A6B33
 0001:000A5B40       loc_100A6B40
 0001:000A5B4B       loc_100A6B4B
 0001:000A5B63       loc_100A6B63
 0001:000A5B6F       loc_100A6B6F
 0001:000A5B90       vscan
 0001:000A5BB6       loc_100A6BB6
 0001:000A5BB9       loc_100A6BB9
 0001:000A5BCA       loc_100A6BCA
 0001:000A5BD4       loc_100A6BD4
 0001:000A5BE5       loc_100A6BE5
 0001:000A5BF1       loc_100A6BF1
 0001:000A5BF9       loc_100A6BF9
 0001:000A5C06       loc_100A6C06
 0001:000A5C17       loc_100A6C17
 0001:000A5C23       loc_100A6C23
 0001:000A5C34       loc_100A6C34
 0001:000A5C3D       loc_100A6C3D
 0001:000A5C50       getformat
 0001:000A5C5E       $LN9_2
 0001:000A5C78       $LN16
 0001:000A5C88       $LN15_2
 0001:000A5C90       $LN13_1
 0001:000A5C96       $LN11_0
 0001:000A5C9A       loc_100A6C9A
 0001:000A5C9C       loc_100A6C9C
 0001:000A5CB8       loc_100A6CB8
 0001:000A5CC5       loc_100A6CC5
 0001:000A5CD4       off_100A6CD4
 0001:000A5CEC       byte_100A6CEC
 0001:000A5D40       scan
 0001:000A5D60       _fftwf_mkstride
 0001:000A5D78       loc_100A6D78
 0001:000A5D82       locret_100A6D82
 0001:000A5D90       _fftwf_mktensor
 0001:000A5DB4       loc_100A6DB4
 0001:000A5E0C       loc_100A6E0C
 0001:000A5E20       _fftwf_tensor_sz
 0001:000A5E32       loc_100A6E32
 0001:000A5E40       loc_100A6E40
 0001:000A5E4A       locret_100A6E4A
 0001:000A5E50       _fftwf_tensor_md5
 0001:000A5E96       loc_100A6E96
 0001:000A5EA0       loc_100A6EA0
 0001:000A5EC1       loc_100A6EC1
 0001:000A5ED3       loc_100A6ED3
 0001:000A5EF4       loc_100A6EF4
 0001:000A5F06       loc_100A6F06
 0001:000A5F27       loc_100A6F27
 0001:000A5F4B       loc_100A6F4B
 0001:000A5F60       _fftwf_tensor_tornk1
 0001:000A5F88       loc_100A6F88
 0001:000A5FC0       _fftwf_tensor_print
 0001:000A5FF0       loc_100A6FF0
 0001:000A6000       loc_100A7000
 0001:000A602B       loc_100A702B
 0001:000A603E       loc_100A703E
 0001:000A6050       _fftwf_mktensor_0d
 0001:000A60AA       loc_100A70AA
 0001:000A60C0       _fftwf_mktensor_1d
 0001:000A6115       loc_100A7115
 0001:000A6132       loc_100A7132
 0001:000A6140       _fftwf_mktensor_2d
 0001:000A6180       _fftwf_mktensor_3d
 0001:000A61D0       _fftwf_tensor_max_index
 0001:000A61E7       loc_100A71E7
 0001:000A61F0       loc_100A71F0
 0001:000A6205       loc_100A7205
 0001:000A621A       loc_100A721A
 0001:000A6220       _fftwf_tensor_min_istride
 0001:000A6229       loc_100A7229
 0001:000A6232       loc_100A7232
 0001:000A6240       loc_100A7240
 0001:000A6248       loc_100A7248
 0001:000A6254       locret_100A7254
 0001:000A6260       _fftwf_tensor_min_ostride
 0001:000A6269       loc_100A7269
 0001:000A6272       loc_100A7272
 0001:000A6280       loc_100A7280
 0001:000A6288       loc_100A7288
 0001:000A6294       locret_100A7294
 0001:000A62A0       _fftwf_tensor_min_stride
 0001:000A62B4       loc_100A72B4
 0001:000A62BD       loc_100A72BD
 0001:000A62D0       loc_100A72D0
 0001:000A62D8       loc_100A72D8
 0001:000A62E3       loc_100A72E3
 0001:000A62E6       loc_100A72E6
 0001:000A62EE       loc_100A72EE
 0001:000A62F7       loc_100A72F7
 0001:000A6304       loc_100A7304
 0001:000A630C       loc_100A730C
 0001:000A6317       loc_100A7317
 0001:000A6323       loc_100A7323
 0001:000A6330       _fftwf_tensor_inplace_strides
 0001:000A6340       loc_100A7340
 0001:000A634F       loc_100A734F
 0001:000A6356       loc_100A7356
 0001:000A6360       tensor_strides_decrease
 0001:000A6387       loc_100A7387
 0001:000A639B       loc_100A739B
 0001:000A63A1       loc_100A73A1
 0001:000A63B0       _fftwf_tensor_strides_decrease
 0001:000A63D0       loc_100A73D0
 0001:000A63DF       loc_100A73DF
 0001:000A63EF       loc_100A73EF
 0001:000A63F4       loc_100A73F4
 0001:000A6400       dimcpy
 0001:000A6415       loc_100A7415
 0001:000A642F       loc_100A742F
 0001:000A6440       _fftwf_tensor_copy
 0001:000A6465       loc_100A7465
 0001:000A647E       loc_100A747E
 0001:000A6490       _fftwf_tensor_copy_inplace
 0001:000A64B5       loc_100A74B5
 0001:000A64CE       loc_100A74CE
 0001:000A64E7       loc_100A74E7
 0001:000A64F9       loc_100A74F9
 0001:000A6500       loc_100A7500
 0001:000A650D       loc_100A750D
 0001:000A6520       _fftwf_tensor_copy_except
 0001:000A6550       loc_100A7550
 0001:000A656C       loc_100A756C
 0001:000A6590       loc_100A7590
 0001:000A65A9       loc_100A75A9
 0001:000A65B0       _fftwf_tensor_copy_sub
 0001:000A65E0       loc_100A75E0
 0001:000A65F9       loc_100A75F9
 0001:000A6600       _fftwf_tensor_append
 0001:000A6658       loc_100A7658
 0001:000A66B4       loc_100A76B4
 0001:000A66D0       _fftwf_dimcmp
 0001:000A66E2       loc_100A76E2
 0001:000A66F0       loc_100A76F0
 0001:000A66FB       loc_100A76FB
 0001:000A6706       loc_100A7706
 0001:000A6710       loc_100A7710
 0001:000A6718       loc_100A7718
 0001:000A6720       loc_100A7720
 0001:000A6728       loc_100A7728
 0001:000A6736       loc_100A7736
 0001:000A674A       loc_100A774A
 0001:000A675E       loc_100A775E
 0001:000A6780       compare_by_istride
 0001:000A678F       loc_100A778F
 0001:000A679D       loc_100A779D
 0001:000A67A6       loc_100A77A6
 0001:000A67C0       really_compress
 0001:000A67D0       loc_100A77D0
 0001:000A67D6       loc_100A77D6
 0001:000A67FF       loc_100A77FF
 0001:000A6850       loc_100A7850
 0001:000A6852       loc_100A7852
 0001:000A6860       loc_100A7860
 0001:000A6878       loc_100A7878
 0001:000A6880       loc_100A7880
 0001:000A6883       loc_100A7883
 0001:000A6890       _fftwf_tensor_compress_contiguous
 0001:000A68B4       loc_100A78B4
 0001:000A68C1       loc_100A78C1
 0001:000A691E       loc_100A791E
 0001:000A6937       loc_100A7937
 0001:000A6971       loc_100A7971
 0001:000A6989       loc_100A7989
 0001:000A698A       loc_100A798A
 0001:000A6992       loc_100A7992
 0001:000A69C0       loc_100A79C0
 0001:000A69EB       loc_100A79EB
 0001:000A69FD       loc_100A79FD
 0001:000A6A0B       loc_100A7A0B
 0001:000A6A35       loc_100A7A35
 0001:000A6A40       _fftwf_tensor_equal
 0001:000A6A51       loc_100A7A51
 0001:000A6A58       loc_100A7A58
 0001:000A6A70       loc_100A7A70
 0001:000A6A91       loc_100A7A91
 0001:000A6AA0       _fftwf_tensor_inplace_locations
 0001:000A6AE0       loc_100A7AE0
 0001:000A6AF9       loc_100A7AF9
 0001:000A6B10       loc_100A7B10
 0001:000A6B1D       loc_100A7B1D
 0001:000A6B40       loc_100A7B40
 0001:000A6B59       loc_100A7B59
 0001:000A6B70       loc_100A7B70
 0001:000A6B7D       loc_100A7B7D
 0001:000A6BC8       loc_100A7BC8
 0001:000A6BD8       loc_100A7BD8
 0001:000A6BF0       _fftwf_tensor_destroy4
 0001:000A6C0B       loc_100A7C0B
 0001:000A6C18       loc_100A7C18
 0001:000A6C25       loc_100A7C25
 0001:000A6C35       loc_100A7C35
 0001:000A6C40       _fftwf_tile2d
 0001:000A6C50       tail
 0001:000A6C90       loc_100A7C90
 0001:000A6CBB       loc_100A7CBB
 0001:000A6CD0       _fftwf_compute_tilesz
 0001:000A6CED       loc_100A7CED
 0001:000A6CF4       loc_100A7CF4
 0001:000A6D10       _fftwf_elapsed_since
 0001:000A6D47       loc_100A7D47
 0001:000A6D50       _fftwf_measure_execution_time
 0001:000A6D73       loc_100A7D73
 0001:000A6D90       loc_100A7D90
 0001:000A6D97       start_over
 0001:000A6DA0       loc_100A7DA0
 0001:000A6DA3       loc_100A7DA3
 0001:000A6DBF       loc_100A7DBF
 0001:000A6DD0       loc_100A7DD0
 0001:000A6DE1       loc_100A7DE1
 0001:000A6E0D       loc_100A7E0D
 0001:000A6E24       loc_100A7E24
 0001:000A6E29       loc_100A7E29
 0001:000A6E2B       loc_100A7E2B
 0001:000A6E63       loc_100A7E63
 0001:000A6E81       loc_100A7E81
 0001:000A6EAB       loc_100A7EAB
 0001:000A6EC3       loc_100A7EC3
 0001:000A6ED0       _fftwf_transpose
 0001:000A6F10       loc_100A7F10
 0001:000A6F20       loc_100A7F20
 0001:000A6F46       loc_100A7F46
 0001:000A6F8E       loc_100A7F8E
 0001:000A6FB0       loc_100A7FB0
 0001:000A6FC8       loc_100A7FC8
 0001:000A6FDF       loc_100A7FDF
 0001:000A6FF9       loc_100A7FF9
 0001:000A7030       loc_100A8030
 0001:000A70B0       loc_100A80B0
 0001:000A7175       loc_100A8175
 0001:000A7194       loc_100A8194
 0001:000A71CF       loc_100A81CF
 0001:000A7203       loc_100A8203
 0001:000A7236       loc_100A8236
 0001:000A72B0       loc_100A82B0
 0001:000A7334       loc_100A8334
 0001:000A7360       loc_100A8360
 0001:000A7386       loc_100A8386
 0001:000A73B3       loc_100A83B3
 0001:000A73C0       dotile_1
 0001:000A7411       loc_100A8411
 0001:000A7430       loc_100A8430
 0001:000A7463       loc_100A8463
 0001:000A74AE       loc_100A84AE
 0001:000A74D0       loc_100A84D0
 0001:000A74E8       loc_100A84E8
 0001:000A74FF       loc_100A84FF
 0001:000A7515       loc_100A8515
 0001:000A7535       loc_100A8535
 0001:000A7600       loc_100A8600
 0001:000A7603       loc_100A8603
 0001:000A76E7       loc_100A86E7
 0001:000A7710       loc_100A8710
 0001:000A774A       loc_100A874A
 0001:000A7760       loc_100A8760
 0001:000A7783       loc_100A8783
 0001:000A7850       loc_100A8850
 0001:000A7853       loc_100A8853
 0001:000A78DB       loc_100A88DB
 0001:000A7910       loc_100A8910
 0001:000A7936       loc_100A8936
 0001:000A7945       loc_100A8945
 0001:000A7950       dotile_buf_1
 0001:000A7A30       transpose_rec
 0001:000A7A47       loc_100A8A47
 0001:000A7A4A       tail_1
 0001:000A7A65       loc_100A8A65
 0001:000A7AA4       loc_100A8AA4
 0001:000A7AA7       loc_100A8AA7
 0001:000A7AD7       loc_100A8AD7
 0001:000A7B19       loc_100A8B19
 0001:000A7B20       _fftwf_transpose_tiled
 0001:000A7B52       loc_100A8B52
 0001:000A7B60       loc_100A8B60
 0001:000A7B72       loc_100A8B72
 0001:000A7BB0       _fftwf_transpose_tiledbuf
 0001:000A7C00       loc_100A8C00
 0001:000A7C07       loc_100A8C07
 0001:000A7C19       loc_100A8C19
 0001:000A7C60       real_cexp
 0001:000A7C8C       loc_100A8C8C
 0001:000A7C9C       loc_100A8C9C
 0001:000A7CAC       loc_100A8CAC
 0001:000A7CBA       loc_100A8CBA
 0001:000A7CE7       loc_100A8CE7
 0001:000A7CF0       loc_100A8CF0
 0001:000A7CF7       loc_100A8CF7
 0001:000A7D10       cexpl_sqrtn_table
 0001:000A7D70       rotate_sqrtn_table
 0001:000A7DF0       cexpl_sincos
 0001:000A7E10       cexp_zero
 0001:000A7E30       cexpl_zero
 0001:000A7E40       cexp_generic
 0001:000A7E70       rotate_generic
 0001:000A7EC0       _fftwf_mktriggen
 0001:000A7F1D       loc_100A8F1D
 0001:000A7F4E       loc_100A8F4E
 0001:000A7F59       loc_100A8F59
 0001:000A7F61       loc_100A8F61
 0001:000A7F6F       loc_100A8F6F
 0001:000A7FBF       loc_100A8FBF
 0001:000A7FEF       loc_100A8FEF
 0001:000A7FF9       loc_100A8FF9
 0001:000A801F       loc_100A901F
 0001:000A8031       loc_100A9031
 0001:000A803E       loc_100A903E
 0001:000A8042       loc_100A9042
 0001:000A8048       loc_100A9048
 0001:000A8056       loc_100A9056
 0001:000A8060       equal_instr
 0001:000A806A       loc_100A906A
 0001:000A8070       loc_100A9070
 0001:000A8082       loc_100A9082
 0001:000A808F       loc_100A908F
 0001:000A809E       loc_100A909E
 0001:000A80A1       loc_100A90A1
 0001:000A80B0       lookup
 0001:000A80C5       loc_100A90C5
 0001:000A80E8       loc_100A90E8
 0001:000A8111       loc_100A9111
 0001:000A8118       loc_100A9118
 0001:000A8120       twlen0
 0001:000A8130       loc_100A9130
 0001:000A813F       $LN4_0
 0001:000A8145       $LN3_0
 0001:000A814B       $LN2_0
 0001:000A8150       $LN1_0
 0001:000A8151       loc_100A9151
 0001:000A815C       loc_100A915C
 0001:000A8168       off_100A9168
 0001:000A8180       compute
 0001:000A81D4       loc_100A91D4
 0001:000A81F0       loc_100A91F0
 0001:000A8204       $LN11_1
 0001:000A8212       loc_100A9212
 0001:000A8238       $LN7_4
 0001:000A8251       loc_100A9251
 0001:000A826E       loc_100A926E
 0001:000A8286       loc_100A9286
 0001:000A8290       loc_100A9290
 0001:000A82A6       loc_100A92A6
 0001:000A82B8       loc_100A92B8
 0001:000A82BA       loc_100A92BA
 0001:000A82C1       loc_100A92C1
 0001:000A82C6       loc_100A92C6
 0001:000A82F4       $LN3_1
 0001:000A831B       $LN2_1
 0001:000A8342       $LN1_1
 0001:000A835B       loc_100A935B
 0001:000A8361       loc_100A9361
 0001:000A8374       loc_100A9374
 0001:000A8382       loc_100A9382
 0001:000A8398       loc_100A9398
 0001:000A83A8       loc_100A93A8
 0001:000A83BC       off_100A93BC
 0001:000A83E0       mktwiddle_1
 0001:000A8411       loc_100A9411
 0001:000A8466       loc_100A9466
 0001:000A84A0       loc_100A94A0
 0001:000A84D3       loc_100A94D3
 0001:000A84E0       twiddle_destroy
 0001:000A8500       loc_100A9500
 0001:000A8530       loc_100A9530
 0001:000A8543       loc_100A9543
 0001:000A855E       loc_100A955E
 0001:000A856E       loc_100A956E
 0001:000A8580       apply_7
 0001:000A85E4       loc_100A95E4
 0001:000A861C       loc_100A961C
 0001:000A862D       loc_100A962D
 0001:000A8650       apply_hc2r
 0001:000A86B4       loc_100A96B4
 0001:000A86EC       loc_100A96EC
 0001:000A86FD       loc_100A96FD
 0001:000A8720       print_15
 0001:000A8760       applicable0_2
 0001:000A87B4       loc_100A97B4
 0001:000A87FC       loc_100A97FC
 0001:000A880C       loc_100A980C
 0001:000A8820       loc_100A9820
 0001:000A882F       loc_100A982F
 0001:000A883B       loc_100A983B
 0001:000A8847       loc_100A9847
 0001:000A886A       loc_100A986A
 0001:000A8880       applicable_3
 0001:000A88BD       loc_100A98BD
 0001:000A88C5       loc_100A98C5
 0001:000A88C9       loc_100A98C9
 0001:000A88DD       loc_100A98DD
 0001:000A88F0       mkplan_11
 0001:000A893A       loc_100A993A
 0001:000A8941       loc_100A9941
 0001:000A894A       loc_100A994A
 0001:000A8950       loc_100A9950
 0001:000A896F       loc_100A996F
 0001:000A8985       loc_100A9985
 0001:000A89BE       loc_100A99BE
 0001:000A89D5       loc_100A99D5
 0001:000A89E7       loc_100A99E7
 0001:000A89EE       loc_100A99EE
 0001:000A89F6       loc_100A99F6
 0001:000A8A3D       loc_100A9A3D
 0001:000A8A4A       loc_100A9A4A
 0001:000A8A9C       loc_100A9A9C
 0001:000A8AAD       loc_100A9AAD
 0001:000A8AF9       loc_100A9AF9
 0001:000A8B06       loc_100A9B06
 0001:000A8B73       loc_100A9B73
 0001:000A8B86       loc_100A9B86
 0001:000A8BA9       loc_100A9BA9
 0001:000A8BB6       loc_100A9BB6
 0001:000A8C08       loc_100A9C08
 0001:000A8C19       loc_100A9C19
 0001:000A8C6D       loc_100A9C6D
 0001:000A8C7C       loc_100A9C7C
 0001:000A8CE3       loc_100A9CE3
 0001:000A8CF3       loc_100A9CF3
 0001:000A8D08       loc_100A9D08
 0001:000A8D8E       loc_100A9D8E
 0001:000A8D9C       loc_100A9D9C
 0001:000A8DA2       loc_100A9DA2
 0001:000A8DA6       loc_100A9DA6
 0001:000A8DAA       nada_2
 0001:000A8DBF       loc_100A9DBF
 0001:000A8DDB       loc_100A9DDB
 0001:000A8DF7       loc_100A9DF7
 0001:000A8E00       loc_100A9E00
 0001:000A8E11       loc_100A9E11
 0001:000A8EB0       _fftwf_rdft_buffered_register
 0001:000A8EC0       loc_100A9EC0
 0001:000A8F09       loc_100A9F09
 0001:000A8F32       loc_100A9F32
 0001:000A8F40       apply_r2hc
 0001:000A8FB6       loc_100A9FB6
 0001:000A9007       loc_100AA007
 0001:000A9018       loc_100AA018
 0001:000A9040       apply_hc2r_7
 0001:000A90B6       loc_100AA0B6
 0001:000A9107       loc_100AA107
 0001:000A9118       loc_100AA118
 0001:000A9140       destroy_6
 0001:000A9167       loc_100AA167
 0001:000A917F       loc_100AA17F
 0001:000A9197       loc_100AA197
 0001:000A91A0       print_16
 0001:000A91E0       applicable0_3
 0001:000A9216       loc_100AA216
 0001:000A922C       loc_100AA22C
 0001:000A925D       loc_100AA25D
 0001:000A929E       loc_100AA29E
 0001:000A92B1       loc_100AA2B1
 0001:000A92C3       loc_100AA2C3
 0001:000A92CF       loc_100AA2CF
 0001:000A92EF       loc_100AA2EF
 0001:000A9300       applicable_4
 0001:000A9345       loc_100AA345
 0001:000A9349       loc_100AA349
 0001:000A9365       loc_100AA365
 0001:000A9370       mkplan_12
 0001:000A93BA       loc_100AA3BA
 0001:000A93C1       loc_100AA3C1
 0001:000A93CA       loc_100AA3CA
 0001:000A93D0       loc_100AA3D0
 0001:000A93EB       loc_100AA3EB
 0001:000A93FB       loc_100AA3FB
 0001:000A9432       loc_100AA432
 0001:000A9449       loc_100AA449
 0001:000A945B       loc_100AA45B
 0001:000A9462       loc_100AA462
 0001:000A9468       loc_100AA468
 0001:000A94FF       loc_100AA4FF
 0001:000A950D       loc_100AA50D
 0001:000A951D       loc_100AA51D
 0001:000A9526       loc_100AA526
 0001:000A9596       loc_100AA596
 0001:000A95AB       loc_100AA5AB
 0001:000A95FF       loc_100AA5FF
 0001:000A960D       loc_100AA60D
 0001:000A961D       loc_100AA61D
 0001:000A9626       loc_100AA626
 0001:000A96AA       loc_100AA6AA
 0001:000A96CB       loc_100AA6CB
 0001:000A974E       loc_100AA74E
 0001:000A9760       loc_100AA760
 0001:000A9783       loc_100AA783
 0001:000A9795       loc_100AA795
 0001:000A97A5       loc_100AA7A5
 0001:000A97B1       loc_100AA7B1
 0001:000A9820       loc_100AA820
 0001:000A9835       loc_100AA835
 0001:000A9878       loc_100AA878
 0001:000A9886       loc_100AA886
 0001:000A9896       loc_100AA896
 0001:000A989F       loc_100AA89F
 0001:000A9923       loc_100AA923
 0001:000A9944       loc_100AA944
 0001:000A99C7       loc_100AA9C7
 0001:000A99CB       loc_100AA9CB
 0001:000A99CF       loc_100AA9CF
 0001:000A99EF       loc_100AA9EF
 0001:000A9A0B       loc_100AAA0B
 0001:000A9A14       loc_100AAA14
 0001:000A9A18       nada_3
 0001:000A9A2F       loc_100AAA2F
 0001:000A9A34       loc_100AAA34
 0001:000A9AE0       _fftwf_rdft2_buffered_register
 0001:000A9AF0       loc_100AAAF0
 0001:000A9B39       loc_100AAB39
 0001:000A9B62       loc_100AAB62
 0001:000A9B70       _fftwf_rdft_conf_standard
 0001:000A9B82       loc_100AAB82
 0001:000A9B9A       loc_100AAB9A
 0001:000A9BB0       loc_100AABB0
 0001:000A9BC8       loc_100AABC8
 0001:000A9BE0       loc_100AABE0
 0001:000A9BF8       loc_100AABF8
 0001:000A9C10       loc_100AAC10
 0001:000A9C28       loc_100AAC28
 0001:000A9C42       loc_100AAC42
 0001:000A9C5A       loc_100AAC5A
 0001:000A9C5D       loc_100AAC5D
 0001:000A9C60       apply_8
 0001:000A9CD1       loc_100AACD1
 0001:000A9CD7       loc_100AACD7
 0001:000A9D2F       loc_100AAD2F
 0001:000A9D40       apply_extra_iter_0
 0001:000A9DD0       loc_100AADD0
 0001:000A9DD6       loc_100AADD6
 0001:000A9E66       loc_100AAE66
 0001:000A9E70       dobatch_1
 0001:000A9ECE       loc_100AAECE
 0001:000A9ED4       loc_100AAED4
 0001:000A9EF9       loc_100AAEF9
 0001:000A9F12       loc_100AAF12
 0001:000A9F42       loc_100AAF42
 0001:000A9F4A       loc_100AAF4A
 0001:000A9F6C       loc_100AAF6C
 0001:000A9F88       loc_100AAF88
 0001:000A9FD8       loc_100AAFD8
 0001:000A9FE2       loc_100AAFE2
 0001:000AA00B       loc_100AB00B
 0001:000AA02F       loc_100AB02F
 0001:000AA042       loc_100AB042
 0001:000AA04D       loc_100AB04D
 0001:000AA07B       loc_100AB07B
 0001:000AA0A0       apply_buf_0
 0001:000AA120       loc_100AB120
 0001:000AA160       loc_100AB160
 0001:000AA194       loc_100AB194
 0001:000AA1E6       loc_100AB1E6
 0001:000AA206       loc_100AB206
 0001:000AA217       loc_100AB217
 0001:000AA220       awake_8
 0001:000AA242       loc_100AB242
 0001:000AA258       loc_100AB258
 0001:000AA296       loc_100AB296
 0001:000AA2B0       destroy_7
 0001:000AA2D7       loc_100AB2D7
 0001:000AA2EF       loc_100AB2EF
 0001:000AA2FF       loc_100AB2FF
 0001:000AA30F       loc_100AB30F
 0001:000AA320       print_17
 0001:000AA37C       loc_100AB37C
 0001:000AA3C0       applicable0_4
 0001:000AA4D3       loc_100AB4D3
 0001:000AA521       loc_100AB521
 0001:000AA530       applicable0_buf_1
 0001:000AA5F9       loc_100AB5F9
 0001:000AA603       loc_100AB603
 0001:000AA610       applicable_5
 0001:000AA638       loc_100AB638
 0001:000AA63D       loc_100AB63D
 0001:000AA665       loc_100AB665
 0001:000AA6A5       loc_100AB6A5
 0001:000AA6B0       mkcldw_2
 0001:000AA729       loc_100AB729
 0001:000AA73C       loc_100AB73C
 0001:000AA74E       loc_100AB74E
 0001:000AA756       loc_100AB756
 0001:000AA763       loc_100AB763
 0001:000AA76B       loc_100AB76B
 0001:000AA77A       loc_100AB77A
 0001:000AA782       loc_100AB782
 0001:000AA7C8       loc_100AB7C8
 0001:000AA7D9       loc_100AB7D9
 0001:000AA802       loc_100AB802
 0001:000AA819       loc_100AB819
 0001:000AA822       loc_100AB822
 0001:000AA833       loc_100AB833
 0001:000AA851       loc_100AB851
 0001:000AA85C       loc_100AB85C
 0001:000AA871       loc_100AB871
 0001:000AA879       loc_100AB879
 0001:000AA886       loc_100AB886
 0001:000AA88E       loc_100AB88E
 0001:000AA899       loc_100AB899
 0001:000AA8A2       loc_100AB8A2
 0001:000AA8E3       loc_100AB8E3
 0001:000AA8E9       loc_100AB8E9
 0001:000AA8F6       loc_100AB8F6
 0001:000AA919       loc_100AB919
 0001:000AA926       nada_4
 0001:000AA931       loc_100AB931
 0001:000AA93A       loc_100AB93A
 0001:000AA94A       loc_100AB94A
 0001:000AA95A       loc_100AB95A
 0001:000AA95B       loc_100AB95B
 0001:000AAAA1       loc_100ABAA1
 0001:000AAAB0       regone_0
 0001:000AAB12       loc_100ABB12
 0001:000AAB50       loc_100ABB50
 0001:000AAB60       apply_dit_5
 0001:000AAB90       apply_dif_0
 0001:000AABC0       apply_dif_dft
 0001:000AAC00       print_18
 0001:000AAC1E       loc_100ABC1E
 0001:000AAC23       loc_100ABC23
 0001:000AAC50       mkplan_13
 0001:000AACAF       loc_100ABCAF
 0001:000AACE6       loc_100ABCE6
 0001:000AACFF       loc_100ABCFF
 0001:000AAD0F       loc_100ABD0F
 0001:000AAD2A       loc_100ABD2A
 0001:000AAD34       loc_100ABD34
 0001:000AAD58       loc_100ABD58
 0001:000AAD64       loc_100ABD64
 0001:000AAE42       loc_100ABE42
 0001:000AAED6       loc_100ABED6
 0001:000AAF9B       loc_100ABF9B
 0001:000AB021       loc_100AC021
 0001:000AB024       nada_5
 0001:000AB053       loc_100AC053
 0001:000AB05C       loc_100AC05C
 0001:000AB061       loc_100AC061
 0001:000AB076       loc_100AC076
 0001:000AB079       loc_100AC079
 0001:000AB0C0       _fftwf_mkplan_hc2c
 0001:000AB100       apply_9
 0001:000AB1E3       loc_100AC1E3
 0001:000AB1E6       loc_100AC1E6
 0001:000AB349       loc_100AC349
 0001:000AB380       loc_100AC380
 0001:000AB3CB       loc_100AC3CB
 0001:000AB3CC       loc_100AC3CC
 0001:000AB3CD       loc_100AC3CD
 0001:000AB3E0       print_19
 0001:000AB400       splitp
 0001:000AB413       loc_100AC413
 0001:000AB418       loc_100AC418
 0001:000AB41E       loc_100AC41E
 0001:000AB430       applicable_6
 0001:000AB446       loc_100AC446
 0001:000AB455       loc_100AC455
 0001:000AB45A       loc_100AC45A
 0001:000AB45E       loc_100AC45E
 0001:000AB466       loc_100AC466
 0001:000AB481       loc_100AC481
 0001:000AB486       loc_100AC486
 0001:000AB48C       loc_100AC48C
 0001:000AB4B2       loc_100AC4B2
 0001:000AB4D0       mkplan_14
 0001:000AB4F9       loc_100AC4F9
 0001:000AB531       loc_100AC531
 0001:000AB552       loc_100AC552
 0001:000AB563       loc_100AC563
 0001:000AB5AC       loc_100AC5AC
 0001:000AB5C2       loc_100AC5C2
 0001:000AB5DB       loc_100AC5DB
 0001:000AB62C       loc_100AC62C
 0001:000AB665       loc_100AC665
 0001:000AB670       loc_100AC670
 0001:000AB67F       loc_100AC67F
 0001:000AB6E0       mksolver_4
 0001:000AB73F       loc_100AC73F
 0001:000AB760       _fftwf_dft_r2hc_register
 0001:000AB780       apply_10
 0001:000AB7C0       loc_100AC7C0
 0001:000AB7F6       loc_100AC7F6
 0001:000AB800       destroy_8
 0001:000AB823       loc_100AC823
 0001:000AB830       print_20
 0001:000AB850       mkplan_15
 0001:000AB882       loc_100AC882
 0001:000AB888       loc_100AC888
 0001:000AB8C1       loc_100AC8C1
 0001:000AB914       loc_100AC914
 0001:000AB98E       loc_100AC98E
 0001:000AB9A0       mksolver_5
 0001:000AB9FF       loc_100AC9FF
 0001:000ABA20       _fftwf_dht_r2hc_register
 0001:000ABA40       apply_11
 0001:000ABA90       loc_100ACA90
 0001:000ABAB7       loc_100ACAB7
 0001:000ABAC6       loc_100ACAC6
 0001:000ABACD       loc_100ACACD
 0001:000ABAE4       loc_100ACAE4
 0001:000ABB73       loc_100ACB73
 0001:000ABCF3       loc_100ACCF3
 0001:000ABD1C       loc_100ACD1C
 0001:000ABD86       loc_100ACD86
 0001:000ABDF0       loc_100ACDF0
 0001:000ABE22       loc_100ACE22
 0001:000ABE38       loc_100ACE38
 0001:000ABE40       loc_100ACE40
 0001:000ABE53       loc_100ACE53
 0001:000ABE66       loc_100ACE66
 0001:000ABE68       loc_100ACE68
 0001:000ABE6E       loc_100ACE6E
 0001:000ABE71       loc_100ACE71
 0001:000ABE7C       loc_100ACE7C
 0001:000ABEA8       loc_100ACEA8
 0001:000ABEC2       loc_100ACEC2
 0001:000ABED0       loc_100ACED0
 0001:000ABEE3       loc_100ACEE3
 0001:000ABEF8       loc_100ACEF8
 0001:000ABF01       loc_100ACF01
 0001:000ABF03       loc_100ACF03
 0001:000ABF20       loc_100ACF20
 0001:000ABF52       loc_100ACF52
 0001:000ABF67       loc_100ACF67
 0001:000ABF70       loc_100ACF70
 0001:000ABF82       loc_100ACF82
 0001:000ABF94       loc_100ACF94
 0001:000ABF96       loc_100ACF96
 0001:000ABF9D       loc_100ACF9D
 0001:000ABFA0       loc_100ACFA0
 0001:000ABFB0       loc_100ACFB0
 0001:000ABFD4       loc_100ACFD4
 0001:000AC006       loc_100AD006
 0001:000AC01B       loc_100AD01B
 0001:000AC021       loc_100AD021
 0001:000AC033       loc_100AD033
 0001:000AC045       loc_100AD045
 0001:000AC047       loc_100AD047
 0001:000AC04E       loc_100AD04E
 0001:000AC051       loc_100AD051
 0001:000AC05E       loc_100AD05E
 0001:000AC080       mkomega_1
 0001:000AC095       loc_100AD095
 0001:000AC0AD       loc_100AD0AD
 0001:000AC0B6       loc_100AD0B6
 0001:000AC0C4       loc_100AD0C4
 0001:000AC110       loc_100AD110
 0001:000AC148       loc_100AD148
 0001:000AC15B       loc_100AD15B
 0001:000AC165       loc_100AD165
 0001:000AC17F       loc_100AD17F
 0001:000AC193       loc_100AD193
 0001:000AC1B1       loc_100AD1B1
 0001:000AC1E3       loc_100AD1E3
 0001:000AC207       loc_100AD207
 0001:000AC220       loc_100AD220
 0001:000AC22D       loc_100AD22D
 0001:000AC287       loc_100AD287
 0001:000AC2B4       loc_100AD2B4
 0001:000AC2BB       loc_100AD2BB
 0001:000AC2D0       awake_9
 0001:000AC2F2       loc_100AD2F2
 0001:000AC308       loc_100AD308
 0001:000AC31E       loc_100AD31E
 0001:000AC357       loc_100AD357
 0001:000AC370       destroy_9
 0001:000AC397       loc_100AD397
 0001:000AC3AF       loc_100AD3AF
 0001:000AC3C7       loc_100AD3C7
 0001:000AC3D0       print_21
 0001:000AC412       loc_100AD412
 0001:000AC42D       loc_100AD42D
 0001:000AC440       applicable_7
 0001:000AC483       loc_100AD483
 0001:000AC498       loc_100AD498
 0001:000AC4A0       loc_100AD4A0
 0001:000AC4B0       choose_transform_size_1
 0001:000AC4C0       loc_100AD4C0
 0001:000AC4D0       loc_100AD4D0
 0001:000AC4E0       loc_100AD4E0
 0001:000AC4EE       loc_100AD4EE
 0001:000AC50B       loc_100AD50B
 0001:000AC50D       loc_100AD50D
 0001:000AC510       loc_100AD510
 0001:000AC520       mkplan_16
 0001:000AC548       loc_100AD548
 0001:000AC577       loc_100AD577
 0001:000AC57B       loc_100AD57B
 0001:000AC5D2       loc_100AD5D2
 0001:000AC5E6       loc_100AD5E6
 0001:000AC64C       loc_100AD64C
 0001:000AC65D       loc_100AD65D
 0001:000AC6D9       loc_100AD6D9
 0001:000AC7CA       loc_100AD7CA
 0001:000AC7CE       loc_100AD7CE
 0001:000AC7D1       loc_100AD7D1
 0001:000AC7D4       nada_6
 0001:000AC7E8       loc_100AD7E8
 0001:000AC805       loc_100AD805
 0001:000AC80B       loc_100AD80B
 0001:000AC820       loc_100AD820
 0001:000AC835       loc_100AD835
 0001:000AC840       mksolver_6
 0001:000AC895       loc_100AD895
 0001:000AC8AD       loc_100AD8AD
 0001:000AC8C0       _fftwf_dht_rader_register
 0001:000AC8F0       apply_r2hc_7
 0001:000AC930       apply_hc2r_0
 0001:000AC970       dobatch_r2hc
 0001:000AC9B0       loc_100AD9B0
 0001:000AC9BB       loc_100AD9BB
 0001:000AC9F2       loc_100AD9F2
 0001:000ACA50       dobatch_hc2r
 0001:000ACA68       loc_100ADA68
 0001:000ACA73       loc_100ADA73
 0001:000ACAAA       loc_100ADAAA
 0001:000ACAF0       loc_100ADAF0
 0001:000ACB0D       loc_100ADB0D
 0001:000ACB15       loc_100ADB15
 0001:000ACB3A       loc_100ADB3A
 0001:000ACB60       iterate
 0001:000ACBA4       loc_100ADBA4
 0001:000ACBE6       loc_100ADBE6
 0001:000ACC1F       loc_100ADC1F
 0001:000ACC30       loc_100ADC30
 0001:000ACC40       apply_buf_r2hc
 0001:000ACC60       apply_buf_hc2r
 0001:000ACC80       destroy_10
 0001:000ACC9E       loc_100ADC9E
 0001:000ACCAE       loc_100ADCAE
 0001:000ACCBE       loc_100ADCBE
 0001:000ACCCE       loc_100ADCCE
 0001:000ACCDE       loc_100ADCDE
 0001:000ACCEE       loc_100ADCEE
 0001:000ACD00       print_22
 0001:000ACD44       loc_100ADD44
 0001:000ACD70       applicable_8
 0001:000ACDD0       loc_100ADDD0
 0001:000ACDDF       loc_100ADDDF
 0001:000ACDEB       loc_100ADDEB
 0001:000ACDF5       loc_100ADDF5
 0001:000ACE00       applicable_buf_1
 0001:000ACE64       loc_100ADE64
 0001:000ACE73       loc_100ADE73
 0001:000ACE7F       loc_100ADE7F
 0001:000ACE84       loc_100ADE84
 0001:000ACE8F       loc_100ADE8F
 0001:000ACEB0       mkplan_17
 0001:000ACED5       loc_100ADED5
 0001:000ACEE4       loc_100ADEE4
 0001:000ACF19       loc_100ADF19
 0001:000ACF6B       loc_100ADF6B
 0001:000ACF92       loc_100ADF92
 0001:000ACF9D       loc_100ADF9D
 0001:000ACFBD       loc_100ADFBD
 0001:000AD013       loc_100AE013
 0001:000AD035       loc_100AE035
 0001:000AD070       loc_100AE070
 0001:000AD07A       loc_100AE07A
 0001:000AD095       loc_100AE095
 0001:000AD0A0       loc_100AE0A0
 0001:000AD0C0       loc_100AE0C0
 0001:000AD0CA       loc_100AE0CA
 0001:000AD0DF       loc_100AE0DF
 0001:000AD0E1       loc_100AE0E1
 0001:000AD110       loc_100AE110
 0001:000AD11E       loc_100AE11E
 0001:000AD140       loc_100AE140
 0001:000AD14A       loc_100AE14A
 0001:000AD170       loc_100AE170
 0001:000AD17E       loc_100AE17E
 0001:000AD198       loc_100AE198
 0001:000AD19A       loc_100AE19A
 0001:000AD1BC       loc_100AE1BC
 0001:000AD1CA       loc_100AE1CA
 0001:000AD1D7       loc_100AE1D7
 0001:000AD246       loc_100AE246
 0001:000AD260       mksolver_7
 0001:000AD2B5       loc_100AE2B5
 0001:000AD2D9       loc_100AE2D9
 0001:000AD2F0       apply_12
 0001:000AD320       destroy_11
 0001:000AD33E       loc_100AE33E
 0001:000AD34E       loc_100AE34E
 0001:000AD360       print_23
 0001:000AD3A0       applicable_9
 0001:000AD400       loc_100AE400
 0001:000AD40F       loc_100AE40F
 0001:000AD41B       loc_100AE41B
 0001:000AD425       loc_100AE425
 0001:000AD430       mkplan_18
 0001:000AD44F       loc_100AE44F
 0001:000AD4A5       loc_100AE4A5
 0001:000AD500       loc_100AE500
 0001:000AD50E       loc_100AE50E
 0001:000AD532       loc_100AE532
 0001:000AD53C       loc_100AE53C
 0001:000AD562       loc_100AE562
 0001:000AD570       loc_100AE570
 0001:000AD57B       loc_100AE57B
 0001:000AD5E0       _fftwf_mksolver_rdft_r2r_direct
 0001:000AD635       loc_100AE635
 0001:000AD653       loc_100AE653
 0001:000AD660       apply_13
 0001:000AD6A0       apply_r2hc_0
 0001:000AD700       loc_100AE700
 0001:000AD73E       loc_100AE73E
 0001:000AD750       loc_100AE750
 0001:000AD761       loc_100AE761
 0001:000AD770       destroy_12
 0001:000AD78E       loc_100AE78E
 0001:000AD79E       loc_100AE79E
 0001:000AD7B0       print_24
 0001:000AD7F0       applicable_10
 0001:000AD853       loc_100AE853
 0001:000AD85C       loc_100AE85C
 0001:000AD870       mkplan_19
 0001:000AD88B       loc_100AE88B
 0001:000AD8A0       loc_100AE8A0
 0001:000AD8A3       loc_100AE8A3
 0001:000AD8B3       loc_100AE8B3
 0001:000AD904       loc_100AE904
 0001:000AD940       loc_100AE940
 0001:000AD94B       loc_100AE94B
 0001:000AD951       loc_100AE951
 0001:000AD970       loc_100AE970
 0001:000AD97E       loc_100AE97E
 0001:000AD992       loc_100AE992
 0001:000AD998       loc_100AE998
 0001:000AD9B6       loc_100AE9B6
 0001:000AD9C4       loc_100AE9C4
 0001:000AD9E9       loc_100AE9E9
 0001:000AD9F8       loc_100AE9F8
 0001:000ADA0A       loc_100AEA0A
 0001:000ADA10       loc_100AEA10
 0001:000ADA19       loc_100AEA19
 0001:000ADA84       loc_100AEA84
 0001:000ADAA0       _fftwf_mksolver_rdft2_direct
 0001:000ADAF5       loc_100AEAF5
 0001:000ADB13       loc_100AEB13
 0001:000ADB20       hartley_r2hc
 0001:000ADB70       loc_100AEB70
 0001:000ADBBE       loc_100AEBBE
 0001:000ADBD0       apply_r2hc_1
 0001:000ADC16       loc_100AEC16
 0001:000ADC70       loc_100AEC70
 0001:000ADC90       loc_100AEC90
 0001:000ADCF1       loc_100AECF1
 0001:000ADD11       loc_100AED11
 0001:000ADD22       loc_100AED22
 0001:000ADD30       cdot_hc2r
 0001:000ADD54       loc_100AED54
 0001:000ADD77       loc_100AED77
 0001:000ADDA0       hartley_hc2r
 0001:000ADDF0       loc_100AEDF0
 0001:000ADE2C       loc_100AEE2C
 0001:000ADE40       apply_hc2r_1
 0001:000ADEC0       loc_100AEEC0
 0001:000ADEF4       loc_100AEEF4
 0001:000ADF17       loc_100AEF17
 0001:000ADF28       loc_100AEF28
 0001:000ADF30       awake_10
 0001:000ADF64       loc_100AEF64
 0001:000ADF80       print_25
 0001:000ADF96       loc_100AEF96
 0001:000ADFB0       applicable_11
 0001:000ADFD5       loc_100AEFD5
 0001:000ADFEF       loc_100AEFEF
 0001:000ADFF9       loc_100AEFF9
 0001:000AE014       loc_100AF014
 0001:000AE020       mkplan_20
 0001:000AE041       loc_100AF041
 0001:000AE054       loc_100AF054
 0001:000AE05B       loc_100AF05B
 0001:000AE0B1       loc_100AF0B1
 0001:000AE133       loc_100AF133
 0001:000AE150       mksolver_8
 0001:000AE1A5       loc_100AF1A5
 0001:000AE1BD       loc_100AF1BD
 0001:000AE1D0       _fftwf_rdft_generic_register
 0001:000AE200       apply_14
 0001:000AE277       loc_100AF277
 0001:000AE27A       loc_100AF27A
 0001:000AE2C2       loc_100AF2C2
 0001:000AE2D0       dobatch_2
 0001:000AE390       loc_100AF390
 0001:000AE39E       loc_100AF39E
 0001:000AE3B9       loc_100AF3B9
 0001:000AE3C9       loc_100AF3C9
 0001:000AE3DD       loc_100AF3DD
 0001:000AE3E5       loc_100AF3E5
 0001:000AE411       loc_100AF411
 0001:000AE440       apply_buf_1
 0001:000AE4D0       loc_100AF4D0
 0001:000AE4F0       loc_100AF4F0
 0001:000AE51D       loc_100AF51D
 0001:000AE55F       loc_100AF55F
 0001:000AE57F       loc_100AF57F
 0001:000AE590       loc_100AF590
 0001:000AE5A0       awake_11
 0001:000AE5C2       loc_100AF5C2
 0001:000AE5D8       loc_100AF5D8
 0001:000AE613       loc_100AF613
 0001:000AE630       destroy_13
 0001:000AE657       loc_100AF657
 0001:000AE66F       loc_100AF66F
 0001:000AE67F       loc_100AF67F
 0001:000AE68F       loc_100AF68F
 0001:000AE6A0       print_26
 0001:000AE6F4       loc_100AF6F4
 0001:000AE720       mkcldw_3
 0001:000AE7B0       loc_100AF7B0
 0001:000AE7C3       loc_100AF7C3
 0001:000AE7C8       loc_100AF7C8
 0001:000AE7E9       loc_100AF7E9
 0001:000AE7FC       loc_100AF7FC
 0001:000AE803       loc_100AF803
 0001:000AE80A       loc_100AF80A
 0001:000AE83D       loc_100AF83D
 0001:000AE851       loc_100AF851
 0001:000AE874       loc_100AF874
 0001:000AE8A4       loc_100AF8A4
 0001:000AE8A9       loc_100AF8A9
 0001:000AE8C1       loc_100AF8C1
 0001:000AE8CB       loc_100AF8CB
 0001:000AE8D8       loc_100AF8D8
 0001:000AE8E0       loc_100AF8E0
 0001:000AE91D       loc_100AF91D
 0001:000AE931       loc_100AF931
 0001:000AE954       loc_100AF954
 0001:000AE961       nada_7
 0001:000AE970       loc_100AF970
 0001:000AE979       loc_100AF979
 0001:000AE98B       loc_100AF98B
 0001:000AE9E3       loc_100AF9E3
 0001:000AEB61       loc_100AFB61
 0001:000AEB7F       loc_100AFB7F
 0001:000AEB8D       loc_100AFB8D
 0001:000AEBA0       regone_1
 0001:000AEC02       loc_100AFC02
 0001:000AEC65       loc_100AFC65
 0001:000AEC69       loc_100AFC69
 0001:000AEC80       bytwiddle_0
 0001:000AECEB       loc_100AFCEB
 0001:000AED21       loc_100AFD21
 0001:000AED53       loc_100AFD53
 0001:000AEE6F       loc_100AFE6F
 0001:000AEE81       loc_100AFE81
 0001:000AEECB       loc_100AFECB
 0001:000AEEED       loc_100AFEED
 0001:000AEEFE       loc_100AFEFE
 0001:000AEF10       swapri
 0001:000AEF63       loc_100AFF63
 0001:000AEF90       loc_100AFF90
 0001:000AEFD6       loc_100AFFD6
 0001:000AEFF0       loc_100AFFF0
 0001:000AF006       loc_100B0006
 0001:000AF02A       loc_100B002A
 0001:000AF030       reorder_dit
 0001:000AF080       loc_100B0080
 0001:000AF086       loc_100B0086
 0001:000AF0C5       loc_100B00C5
 0001:000AF175       loc_100B0175
 0001:000AF2E4       loc_100B02E4
 0001:000AF323       loc_100B0323
 0001:000AF383       loc_100B0383
 0001:000AF3AD       loc_100B03AD
 0001:000AF3D3       loc_100B03D3
 0001:000AF3E0       reorder_dif
 0001:000AF437       loc_100B0437
 0001:000AF43D       loc_100B043D
 0001:000AF494       loc_100B0494
 0001:000AF547       loc_100B0547
 0001:000AF6D6       loc_100B06D6
 0001:000AF715       loc_100B0715
 0001:000AF77D       loc_100B077D
 0001:000AF7A9       loc_100B07A9
 0001:000AF7B8       loc_100B07B8
 0001:000AF7C0       apply_dit_0
 0001:000AF810       apply_dif_1
 0001:000AF860       awake_12
 0001:000AF882       loc_100B0882
 0001:000AF898       loc_100B0898
 0001:000AF8BE       loc_100B08BE
 0001:000AF8D0       destroy_14
 0001:000AF8F7       loc_100B08F7
 0001:000AF90F       loc_100B090F
 0001:000AF920       print_27
 0001:000AF939       loc_100B0939
 0001:000AF960       mkcldw_4
 0001:000AF973       loc_100B0973
 0001:000AF984       loc_100B0984
 0001:000AF996       loc_100B0996
 0001:000AF9A4       loc_100B09A4
 0001:000AF9AB       loc_100B09AB
 0001:000AF9EB       loc_100B09EB
 0001:000AF9F0       loc_100B09F0
 0001:000AFA33       loc_100B0A33
 0001:000AFA47       loc_100B0A47
 0001:000AFA70       loc_100B0A70
 0001:000AFB03       loc_100B0B03
 0001:000AFB26       loc_100B0B26
 0001:000AFB42       loc_100B0B42
 0001:000AFB4B       loc_100B0B4B
 0001:000AFB5F       loc_100B0B5F
 0001:000AFBB4       loc_100B0BB4
 0001:000AFC46       loc_100B0C46
 0001:000AFC54       loc_100B0C54
 0001:000AFC5A       loc_100B0C5A
 0001:000AFC90       regsolver_1
 0001:000AFCE5       loc_100B0CE5
 0001:000AFD23       loc_100B0D23
 0001:000AFD26       loc_100B0D26
 0001:000AFD40       _fftwf_hc2hc_generic_register
 0001:000AFD50       apply_dit_1
 0001:000AFD80       apply_dif_2
 0001:000AFDB0       print_28
 0001:000AFDC9       loc_100B0DC9
 0001:000AFDF0       mkplan_21
 0001:000AFE25       loc_100B0E25
 0001:000AFE6C       loc_100B0E6C
 0001:000AFE9E       loc_100B0E9E
 0001:000AFEB3       loc_100B0EB3
 0001:000AFEC0       loc_100B0EC0
 0001:000AFED8       loc_100B0ED8
 0001:000AFEDA       loc_100B0EDA
 0001:000AFF04       loc_100B0F04
 0001:000AFF13       loc_100B0F13
 0001:000AFFD5       loc_100B0FD5
 0001:000B007E       loc_100B107E
 0001:000B0087       nada_8
 0001:000B00B6       loc_100B10B6
 0001:000B00BF       loc_100B10BF
 0001:000B00C4       loc_100B10C4
 0001:000B00D9       loc_100B10D9
 0001:000B0120       apply_15
 0001:000B0150       mkcld_before_1
 0001:000B0180       loc_100B1180
 0001:000B0199       loc_100B1199
 0001:000B01B0       loc_100B11B0
 0001:000B01BD       loc_100B11BD
 0001:000B01E0       loc_100B11E0
 0001:000B01F9       loc_100B11F9
 0001:000B0210       loc_100B1210
 0001:000B021D       loc_100B121D
 0001:000B0260       apply_after_1
 0001:000B0290       mkcld_after_1
 0001:000B02C0       loc_100B12C0
 0001:000B02D9       loc_100B12D9
 0001:000B02F0       loc_100B12F0
 0001:000B02FD       loc_100B12FD
 0001:000B0320       loc_100B1320
 0001:000B0339       loc_100B1339
 0001:000B0350       loc_100B1350
 0001:000B035D       loc_100B135D
 0001:000B03A0       applicable0_5
 0001:000B03E0       loc_100B13E0
 0001:000B03F2       loc_100B13F2
 0001:000B0402       loc_100B1402
 0001:000B0437       loc_100B1437
 0001:000B043A       loc_100B143A
 0001:000B0464       loc_100B1464
 0001:000B0470       loc_100B1470
 0001:000B0480       mkplan_22
 0001:000B04B0       loc_100B14B0
 0001:000B04B8       loc_100B14B8
 0001:000B0503       loc_100B1503
 0001:000B0514       loc_100B1514
 0001:000B053A       loc_100B153A
 0001:000B057B       loc_100B157B
 0001:000B0584       loc_100B1584
 0001:000B05E4       loc_100B15E4
 0001:000B0642       loc_100B1642
 0001:000B0650       _fftwf_rdft_indirect_register
 0001:000B0660       loc_100B1660
 0001:000B06B2       loc_100B16B2
 0001:000B06E2       loc_100B16E2
 0001:000B06F0       print_29
 0001:000B0710       mkplan_23
 0001:000B073A       loc_100B173A
 0001:000B073E       loc_100B173E
 0001:000B0790       loc_100B1790
 0001:000B07CD       loc_100B17CD
 0001:000B07E0       mksolver_9
 0001:000B083F       loc_100B183F
 0001:000B0860       _fftwf_rdft_nop_register
 0001:000B0880       print_30
 0001:000B08A0       mkplan_24
 0001:000B08D9       loc_100B18D9
 0001:000B08DD       loc_100B18DD
 0001:000B092F       loc_100B192F
 0001:000B096C       loc_100B196C
 0001:000B0980       mksolver_10
 0001:000B09DF       loc_100B19DF
 0001:000B0A00       _fftwf_rdft2_nop_register
 0001:000B0A20       _fftwf_mkplan_dft
 0001:000B0A60       kind_hash
 0001:000B0A70       loc_100B1A70
 0001:000B0A80       loc_100B1A80
 0001:000B0AA1       loc_100B1AA1
 0001:000B0AAE       loc_100B1AAE
 0001:000B0AC0       hash_2
 0001:000B0AD0       loc_100B1AD0
 0001:000B0AEF       loc_100B1AEF
 0001:000B0B60       recur_2
 0001:000B0B83       loc_100B1B83
 0001:000B0BA0       loc_100B1BA0
 0001:000B0BAE       loc_100B1BAE
 0001:000B0BD0       loc_100B1BD0
 0001:000B0BE6       loc_100B1BE6
 0001:000B0BF0       print_31
 0001:000B0C30       loc_100B1C30
 0001:000B0C4F       loc_100B1C4F
 0001:000B0C70       zero_2
 0001:000B0CB0       _fftwf_mkproblem_rdft
 0001:000B0CD6       loc_100B1CD6
 0001:000B0CDA       loc_100B1CDA
 0001:000B0CF2       loc_100B1CF2
 0001:000B0D01       loc_100B1D01
 0001:000B0D28       loc_100B1D28
 0001:000B0D29       loc_100B1D29
 0001:000B0D3D       loc_100B1D3D
 0001:000B0D3F       loc_100B1D3F
 0001:000B0D80       loc_100B1D80
 0001:000B0DA7       loc_100B1DA7
 0001:000B0DCB       loc_100B1DCB
 0001:000B0DDF       loc_100B1DDF
 0001:000B0E05       loc_100B1E05
 0001:000B0E20       loc_100B1E20
 0001:000B0E7F       loc_100B1E7F
 0001:000B0E94       loc_100B1E94
 0001:000B0EAD       loc_100B1EAD
 0001:000B0EC0       loc_100B1EC0
 0001:000B0EDA       loc_100B1EDA
 0001:000B0EE0       loc_100B1EE0
 0001:000B0EE9       loc_100B1EE9
 0001:000B0F10       _fftwf_mkproblem_rdft_d
 0001:000B0F37       loc_100B1F37
 0001:000B0F48       loc_100B1F48
 0001:000B0F50       _fftwf_mkproblem_rdft_1_d
 0001:000B0F77       loc_100B1F77
 0001:000B0F88       loc_100B1F88
 0001:000B0F90       _fftwf_mkproblem_rdft_0_d
 0001:000B0FC3       loc_100B1FC3
 0001:000B0FD4       loc_100B1FD4
 0001:000B0FE0       destroy_15
 0001:000B1002       loc_100B2002
 0001:000B100F       loc_100B200F
 0001:000B1020       hash_0
 0001:000B1030       loc_100B2030
 0001:000B104F       loc_100B204F
 0001:000B1110       print_32
 0001:000B1140       recur_0
 0001:000B1167       loc_100B2167
 0001:000B11A0       loc_100B21A0
 0001:000B11B0       loc_100B21B0
 0001:000B11B3       loc_100B21B3
 0001:000B11C2       loc_100B21C2
 0001:000B11E0       loc_100B21E0
 0001:000B11FB       loc_100B21FB
 0001:000B11FE       loc_100B21FE
 0001:000B1210       vrecur
 0001:000B1241       loc_100B2241
 0001:000B1270       loc_100B2270
 0001:000B1295       loc_100B2295
 0001:000B1296       loc_100B2296
 0001:000B12A0       zero_0
 0001:000B12E0       loc_100B22E0
 0001:000B1303       loc_100B2303
 0001:000B131C       loc_100B231C
 0001:000B1343       $LN16_1
 0001:000B134B       $LN15_0
 0001:000B1353       loc_100B2353
 0001:000B1355       loc_100B2355
 0001:000B1357       loc_100B2357
 0001:000B1398       off_100B2398
 0001:000B13A4       byte_100B23A4
 0001:000B13B0       _fftwf_mkproblem_rdft2
 0001:000B13D1       loc_100B23D1
 0001:000B13E8       loc_100B23E8
 0001:000B143B       loc_100B243B
 0001:000B14AC       loc_100B24AC
 0001:000B14F4       loc_100B24F4
 0001:000B150B       loc_100B250B
 0001:000B1519       loc_100B2519
 0001:000B1527       loc_100B2527
 0001:000B154D       loc_100B254D
 0001:000B1550       loc_100B2550
 0001:000B1566       loc_100B2566
 0001:000B157A       loc_100B257A
 0001:000B159F       loc_100B259F
 0001:000B15A2       loc_100B25A2
 0001:000B15E0       _fftwf_mkproblem_rdft2_d
 0001:000B160F       loc_100B260F
 0001:000B1620       loc_100B2620
 0001:000B1630       apply_r2hc_2
 0001:000B1670       apply_hc2r_2
 0001:000B16B0       awake_13
 0001:000B16D2       loc_100B26D2
 0001:000B16E8       loc_100B26E8
 0001:000B16F0       destroy_16
 0001:000B1717       loc_100B2717
 0001:000B172F       loc_100B272F
 0001:000B1740       print_33
 0001:000B1770       applicable0_6
 0001:000B17A2       loc_100B27A2
 0001:000B17EE       loc_100B27EE
 0001:000B17FA       loc_100B27FA
 0001:000B1810       applicable_12
 0001:000B1830       loc_100B2830
 0001:000B1837       loc_100B2837
 0001:000B184B       loc_100B284B
 0001:000B1876       loc_100B2876
 0001:000B1880       mkplan_25
 0001:000B18A6       loc_100B28A6
 0001:000B1973       loc_100B2973
 0001:000B1987       loc_100B2987
 0001:000B19AE       loc_100B29AE
 0001:000B19EC       loc_100B29EC
 0001:000B1A18       loc_100B2A18
 0001:000B1A45       loc_100B2A45
 0001:000B1A52       nada_9
 0001:000B1A64       loc_100B2A64
 0001:000B1A83       loc_100B2A83
 0001:000B1A93       loc_100B2A93
 0001:000B1AA3       loc_100B2AA3
 0001:000B1AAC       loc_100B2AAC
 0001:000B1ABC       loc_100B2ABC
 0001:000B1B11       loc_100B2B11
 0001:000B1B85       loc_100B2B85
 0001:000B1B90       _fftwf_rdft2_rank_geq2_register
 0001:000B1BA0       loc_100B2BA0
 0001:000B1BFA       loc_100B2BFA
 0001:000B1C3C       loc_100B2C3C
 0001:000B1C50       print_34
 0001:000B1C80       applicable_13
 0001:000B1CD3       loc_100B2CD3
 0001:000B1CDC       loc_100B2CDC
 0001:000B1CF0       loc_100B2CF0
 0001:000B1D17       loc_100B2D17
 0001:000B1D40       mkplan_26
 0001:000B1D68       loc_100B2D68
 0001:000B1DB2       loc_100B2DB2
 0001:000B1DCB       loc_100B2DCB
 0001:000B1DE0       loc_100B2DE0
 0001:000B1DED       loc_100B2DED
 0001:000B1E11       loc_100B2E11
 0001:000B1E2D       loc_100B2E2D
 0001:000B1E40       loc_100B2E40
 0001:000B1E4D       loc_100B2E4D
 0001:000B1EA2       loc_100B2EA2
 0001:000B1EA8       loc_100B2EA8
 0001:000B1EB5       loc_100B2EB5
 0001:000B1EDE       loc_100B2EDE
 0001:000B1F2B       loc_100B2F2B
 0001:000B1F3B       loc_100B2F3B
 0001:000B1F5B       loc_100B2F5B
 0001:000B1F79       loc_100B2F79
 0001:000B1F95       loc_100B2F95
 0001:000B1FB3       loc_100B2FB3
 0001:000B2006       loc_100B3006
 0001:000B207E       loc_100B307E
 0001:000B2090       _fftwf_rdft_rank_geq2_register
 0001:000B20A0       loc_100B30A0
 0001:000B20FA       loc_100B30FA
 0001:000B213C       loc_100B313C
 0001:000B2150       apply_r2hc_3
 0001:000B21A0       loc_100B31A0
 0001:000B21F7       loc_100B31F7
 0001:000B21FD       loc_100B31FD
 0001:000B2230       loc_100B3230
 0001:000B228D       loc_100B328D
 0001:000B22A2       loc_100B32A2
 0001:000B22B6       loc_100B32B6
 0001:000B22C0       apply_r2hc_inplace
 0001:000B22F1       loc_100B32F1
 0001:000B230C       loc_100B330C
 0001:000B2320       loc_100B3320
 0001:000B2329       loc_100B3329
 0001:000B2330       apply_hc2r_3
 0001:000B2350       awake_14
 0001:000B2372       loc_100B3372
 0001:000B2380       destroy_17
 0001:000B23A3       loc_100B33A3
 0001:000B23B0       print_35
 0001:000B23D0       loc_100B33D0
 0001:000B23F0       mkplan_27
 0001:000B2436       loc_100B3436
 0001:000B243E       loc_100B343E
 0001:000B2481       loc_100B3481
 0001:000B2491       loc_100B3491
 0001:000B24A8       loc_100B34A8
 0001:000B24B1       loc_100B34B1
 0001:000B24B8       loc_100B34B8
 0001:000B250B       loc_100B350B
 0001:000B254D       loc_100B354D
 0001:000B2579       loc_100B3579
 0001:000B2584       loc_100B3584
 0001:000B25A0       mksolver_11
 0001:000B25FF       loc_100B35FF
 0001:000B2620       _fftwf_rdft2_rank0_register
 0001:000B2640       fill_iodim
 0001:000B2660       loc_100B3660
 0001:000B2676       loc_100B3676
 0001:000B269D       loc_100B369D
 0001:000B26AA       loc_100B36AA
 0001:000B26AC       loc_100B36AC
 0001:000B26B0       copy
 0001:000B26EC       loc_100B36EC
 0001:000B2710       loc_100B3710
 0001:000B2743       loc_100B3743
 0001:000B2750       transposep
 0001:000B2760       loc_100B3760
 0001:000B276F       loc_100B376F
 0001:000B279E       loc_100B379E
 0001:000B27B0       transpose
 0001:000B27D9       loc_100B37D9
 0001:000B27F0       loc_100B37F0
 0001:000B2815       loc_100B3815
 0001:000B2820       apply_iter
 0001:000B2853       loc_100B3853
 0001:000B2873       loc_100B3873
 0001:000B28B0       loc_100B38B0
 0001:000B294B       loc_100B394B
 0001:000B2960       loc_100B3960
 0001:000B2992       loc_100B3992
 0001:000B29A5       loc_100B39A5
 0001:000B29EC       loc_100B39EC
 0001:000B29F0       loc_100B39F0
 0001:000B2A0D       loc_100B3A0D
 0001:000B2A20       loc_100B3A20
 0001:000B2A3F       loc_100B3A3F
 0001:000B2A43       loc_100B3A43
 0001:000B2A52       loc_100B3A52
 0001:000B2A60       applicable_iter
 0001:000B2A80       apply_cpy2dco
 0001:000B2AB0       applicable_cpy2dco
 0001:000B2ADA       loc_100B3ADA
 0001:000B2AE3       loc_100B3AE3
 0001:000B2AF0       loc_100B3AF0
 0001:000B2AFB       loc_100B3AFB
 0001:000B2AFF       loc_100B3AFF
 0001:000B2B06       loc_100B3B06
 0001:000B2B10       apply_tiled
 0001:000B2B40       applicable_tiled
 0001:000B2B70       loc_100B3B70
 0001:000B2B80       apply_tiledbuf
 0001:000B2BB0       apply_memcpy
 0001:000B2BD0       applicable_memcpy
 0001:000B2BF4       loc_100B3BF4
 0001:000B2C00       memcpy_loop
 0001:000B2C38       loc_100B3C38
 0001:000B2C56       loc_100B3C56
 0001:000B2C77       loc_100B3C77
 0001:000B2C95       loc_100B3C95
 0001:000B2CA0       apply_memcpy_loop
 0001:000B2CD0       applicable_memcpy_loop
 0001:000B2CF4       loc_100B3CF4
 0001:000B2D00       apply_ip_sq
 0001:000B2D30       applicable_ip_sq
 0001:000B2D59       loc_100B3D59
 0001:000B2D60       apply_ip_sq_tiled
 0001:000B2D90       applicable_ip_sq_tiled
 0001:000B2DD0       loc_100B3DD0
 0001:000B2DEF       loc_100B3DEF
 0001:000B2E00       apply_ip_sq_tiledbuf
 0001:000B2E30       print_36
 0001:000B2E60       loc_100B3E60
 0001:000B2E7C       loc_100B3E7C
 0001:000B2E90       mkplan_28
 0001:000B2EE3       loc_100B3EE3
 0001:000B2EFA       loc_100B3EFA
 0001:000B2F59       loc_100B3F59
 0001:000B2FA7       loc_100B3FA7
 0001:000B2FB2       loc_100B3FB2
 0001:000B2FB9       loc_100B3FB9
 0001:000B2FC2       loc_100B3FC2
 0001:000B2FF0       _fftwf_rdft_rank0_register
 0001:000B3000       loc_100B4000
 0001:000B304D       loc_100B404D
 0001:000B3094       loc_100B4094
 0001:000B30A0       apply_r2hc_4
 0001:000B30E2       loc_100B40E2
 0001:000B3118       loc_100B4118
 0001:000B3120       apply_hc2r_4
 0001:000B3150       loc_100B4150
 0001:000B3153       loc_100B4153
 0001:000B3188       loc_100B4188
 0001:000B31B0       apply_hc2r_save
 0001:000B31F8       loc_100B41F8
 0001:000B3259       loc_100B4259
 0001:000B3271       loc_100B4271
 0001:000B3290       print_37
 0001:000B32A9       loc_100B42A9
 0001:000B32D0       mkplan_29
 0001:000B3303       loc_100B4303
 0001:000B3309       loc_100B4309
 0001:000B3311       loc_100B4311
 0001:000B335A       loc_100B435A
 0001:000B3379       loc_100B4379
 0001:000B339C       loc_100B439C
 0001:000B33A9       loc_100B43A9
 0001:000B33B8       loc_100B43B8
 0001:000B33D5       loc_100B43D5
 0001:000B3428       loc_100B4428
 0001:000B34B9       loc_100B44B9
 0001:000B34C7       loc_100B44C7
 0001:000B34C9       loc_100B44C9
 0001:000B34DF       loc_100B44DF
 0001:000B34FD       loc_100B44FD
 0001:000B3510       mksolver_12
 0001:000B356F       loc_100B456F
 0001:000B3590       _fftwf_rdft_dht_register
 0001:000B35B0       _fftwf_rdft2_inplace_strides
 0001:000B35D0       loc_100B45D0
 0001:000B35DF       loc_100B45DF
 0001:000B3610       loc_100B4610
 0001:000B3632       loc_100B4632
 0001:000B363B       loc_100B463B
 0001:000B365C       loc_100B465C
 0001:000B3672       loc_100B4672
 0001:000B3680       loc_100B4680
 0001:000B3689       loc_100B4689
 0001:000B368C       loc_100B468C
 0001:000B36BC       loc_100B46BC
 0001:000B36C2       loc_100B46C2
 0001:000B36EA       loc_100B46EA
 0001:000B36F0       loc_100B46F0
 0001:000B36F6       loc_100B46F6
 0001:000B3707       loc_100B4707
 0001:000B370F       loc_100B470F
 0001:000B3720       hc2c
 0001:000B3760       loc_100B4760
 0001:000B3763       loc_100B4763
 0001:000B3788       loc_100B4788
 0001:000B37A8       loc_100B47A8
 0001:000B37B0       c2hc
 0001:000B37F0       loc_100B47F0
 0001:000B37F3       loc_100B47F3
 0001:000B3814       loc_100B4814
 0001:000B382A       loc_100B482A
 0001:000B3830       apply_r2hc_5
 0001:000B3893       loc_100B4893
 0001:000B38C0       loc_100B48C0
 0001:000B38F2       loc_100B48F2
 0001:000B38FF       loc_100B48FF
 0001:000B3910       loc_100B4910
 0001:000B3940       apply_hc2r_5
 0001:000B39A1       loc_100B49A1
 0001:000B39B1       loc_100B49B1
 0001:000B39E7       loc_100B49E7
 0001:000B3A0E       loc_100B4A0E
 0001:000B3A1F       loc_100B4A1F
 0001:000B3A50       print_38
 0001:000B3A6B       loc_100B4A6B
 0001:000B3AA0       min_nbuf
 0001:000B3AB2       loc_100B4AB2
 0001:000B3ABC       loc_100B4ABC
 0001:000B3AE1       loc_100B4AE1
 0001:000B3AE7       loc_100B4AE7
 0001:000B3AFD       loc_100B4AFD
 0001:000B3B0B       loc_100B4B0B
 0001:000B3B11       loc_100B4B11
 0001:000B3B19       loc_100B4B19
 0001:000B3B29       loc_100B4B29
 0001:000B3B2F       loc_100B4B2F
 0001:000B3B47       loc_100B4B47
 0001:000B3B5E       loc_100B4B5E
 0001:000B3B67       loc_100B4B67
 0001:000B3B81       loc_100B4B81
 0001:000B3B95       loc_100B4B95
 0001:000B3BA0       applicable0_7
 0001:000B3BC3       loc_100B4BC3
 0001:000B3BC8       loc_100B4BC8
 0001:000B3BCB       loc_100B4BCB
 0001:000B3BF4       loc_100B4BF4
 0001:000B3BFB       loc_100B4BFB
 0001:000B3C00       mkplan_30
 0001:000B3C58       loc_100B4C58
 0001:000B3C7A       loc_100B4C7A
 0001:000B3C89       loc_100B4C89
 0001:000B3CB0       loc_100B4CB0
 0001:000B3CB3       loc_100B4CB3
 0001:000B3CC0       loc_100B4CC0
 0001:000B3CDA       loc_100B4CDA
 0001:000B3CEC       loc_100B4CEC
 0001:000B3CF3       loc_100B4CF3
 0001:000B3CF8       loc_100B4CF8
 0001:000B3D5A       loc_100B4D5A
 0001:000B3D66       loc_100B4D66
 0001:000B3DB3       loc_100B4DB3
 0001:000B3DC7       loc_100B4DC7
 0001:000B3E0D       loc_100B4E0D
 0001:000B3E85       loc_100B4E85
 0001:000B3E97       loc_100B4E97
 0001:000B3EAD       loc_100B4EAD
 0001:000B3EB9       loc_100B4EB9
 0001:000B3F06       loc_100B4F06
 0001:000B3F1A       loc_100B4F1A
 0001:000B3F4F       loc_100B4F4F
 0001:000B3FC7       loc_100B4FC7
 0001:000B3FCB       loc_100B4FCB
 0001:000B3FCE       loc_100B4FCE
 0001:000B3FE7       loc_100B4FE7
 0001:000B3FF0       loc_100B4FF0
 0001:000B3FF3       nada_10
 0001:000B4009       loc_100B5009
 0001:000B400E       loc_100B500E
 0001:000B4051       loc_100B5051
 0001:000B4054       loc_100B5054
 0001:000B409A       loc_100B509A
 0001:000B40C0       mksolver_13
 0001:000B411F       loc_100B511F
 0001:000B4140       _fftwf_rdft2_rdft_register
 0001:000B4160       _fftwf_rdft2_tensor_max_index
 0001:000B4180       loc_100B5180
 0001:000B4189       loc_100B5189
 0001:000B4193       loc_100B5193
 0001:000B4199       loc_100B5199
 0001:000B41B8       loc_100B51B8
 0001:000B41D1       loc_100B51D1
 0001:000B41D7       loc_100B51D7
 0001:000B41DD       loc_100B51DD
 0001:000B41E5       loc_100B51E5
 0001:000B41FD       loc_100B51FD
 0001:000B4206       loc_100B5206
 0001:000B4210       _fftwf_rdft_solve
 0001:000B4240       print_39
 0001:000B4270       applicable0_8
 0001:000B42BE       loc_100B52BE
 0001:000B42D1       loc_100B52D1
 0001:000B42E0       applicable_14
 0001:000B42FC       loc_100B52FC
 0001:000B4303       loc_100B5303
 0001:000B431D       loc_100B531D
 0001:000B4343       loc_100B5343
 0001:000B434F       loc_100B534F
 0001:000B435C       loc_100B535C
 0001:000B436E       loc_100B536E
 0001:000B4377       loc_100B5377
 0001:000B4395       loc_100B5395
 0001:000B43A0       mkplan_31
 0001:000B43C8       loc_100B53C8
 0001:000B43F1       loc_100B53F1
 0001:000B43FF       loc_100B53FF
 0001:000B4413       loc_100B5413
 0001:000B4420       loc_100B5420
 0001:000B442F       loc_100B542F
 0001:000B4437       loc_100B5437
 0001:000B444E       loc_100B544E
 0001:000B445B       loc_100B545B
 0001:000B4469       loc_100B5469
 0001:000B4471       loc_100B5471
 0001:000B44B6       loc_100B54B6
 0001:000B44C7       loc_100B54C7
 0001:000B44ED       loc_100B54ED
 0001:000B44FA       loc_100B54FA
 0001:000B454F       loc_100B554F
 0001:000B45EB       loc_100B55EB
 0001:000B45F4       loc_100B55F4
 0001:000B45FD       loc_100B55FD
 0001:000B4610       _fftwf_rdft2_vrank_geq1_register
 0001:000B4620       loc_100B5620
 0001:000B467A       loc_100B567A
 0001:000B46BC       loc_100B56BC
 0001:000B46D0       apply_16
 0001:000B4710       loc_100B5710
 0001:000B4728       loc_100B5728
 0001:000B4730       print_40
 0001:000B4760       applicable_15
 0001:000B47B5       loc_100B57B5
 0001:000B47BE       loc_100B57BE
 0001:000B47D2       loc_100B57D2
 0001:000B47E9       loc_100B57E9
 0001:000B4802       loc_100B5802
 0001:000B480D       loc_100B580D
 0001:000B4815       loc_100B5815
 0001:000B4827       loc_100B5827
 0001:000B483F       loc_100B583F
 0001:000B485C       loc_100B585C
 0001:000B4870       mkplan_32
 0001:000B4897       loc_100B5897
 0001:000B48C1       loc_100B58C1
 0001:000B48D5       loc_100B58D5
 0001:000B48EC       loc_100B58EC
 0001:000B48F7       loc_100B58F7
 0001:000B4936       loc_100B5936
 0001:000B4947       loc_100B5947
 0001:000B496D       loc_100B596D
 0001:000B497A       loc_100B597A
 0001:000B49CF       loc_100B59CF
 0001:000B4A6B       loc_100B5A6B
 0001:000B4A74       loc_100B5A74
 0001:000B4A7D       loc_100B5A7D
 0001:000B4A90       _fftwf_rdft_vrank_geq1_register
 0001:000B4AA0       loc_100B5AA0
 0001:000B4AFA       loc_100B5AFA
 0001:000B4B3C       loc_100B5B3C
 0001:000B4B50       Ntuple_transposable
 0001:000B4B84       loc_100B5B84
 0001:000B4B94       loc_100B5B94
 0001:000B4B9D       loc_100B5B9D
 0001:000B4BB0       pickdim_1
 0001:000B4BE0       loc_100B5BE0
 0001:000B4C00       loc_100B5C00
 0001:000B4C18       loc_100B5C18
 0001:000B4C25       loc_100B5C25
 0001:000B4C44       loc_100B5C44
 0001:000B4C6D       loc_100B5C6D
 0001:000B4C7B       loc_100B5C7B
 0001:000B4C84       loc_100B5C84
 0001:000B4C9F       loc_100B5C9F
 0001:000B4CBD       loc_100B5CBD
 0001:000B4CC6       loc_100B5CC6
 0001:000B4CD2       loc_100B5CD2
 0001:000B4D00       applicable_16
 0001:000B4D24       loc_100B5D24
 0001:000B4D63       loc_100B5D63
 0001:000B4D79       loc_100B5D79
 0001:000B4D82       loc_100B5D82
 0001:000B4D88       loc_100B5D88
 0001:000B4D8C       loc_100B5D8C
 0001:000B4D92       loc_100B5D92
 0001:000B4D95       loc_100B5D95
 0001:000B4DBA       loc_100B5DBA
 0001:000B4E0C       loc_100B5E0C
 0001:000B4E20       apply_gcd
 0001:000B4E80       loc_100B5E80
 0001:000B4EA9       loc_100B5EA9
 0001:000B4EE0       loc_100B5EE0
 0001:000B4EFF       loc_100B5EFF
 0001:000B4F10       loc_100B5F10
 0001:000B4F20       applicable_gcd
 0001:000B4F60       loc_100B5F60
 0001:000B4F75       loc_100B5F75
 0001:000B4F78       loc_100B5F78
 0001:000B4FE1       loc_100B5FE1
 0001:000B4FF0       mkcldrn_gcd
 0001:000B505A       loc_100B605A
 0001:000B506A       loc_100B606A
 0001:000B50E6       loc_100B60E6
 0001:000B510C       loc_100B610C
 0001:000B5159       loc_100B6159
 0001:000B51DC       loc_100B61DC
 0001:000B5202       loc_100B6202
 0001:000B5251       loc_100B6251
 0001:000B5260       loc_100B6260
 0001:000B52D0       loc_100B62D0
 0001:000B52D7       nada_11
 0001:000B52EB       loc_100B62EB
 0001:000B52F4       loc_100B62F4
 0001:000B5336       loc_100B6336
 0001:000B534A       loc_100B634A
 0001:000B5360       apply_cut
 0001:000B53E0       loc_100B63E0
 0001:000B5400       loc_100B6400
 0001:000B5403       loc_100B6403
 0001:000B54B0       loc_100B64B0
 0001:000B54D4       loc_100B64D4
 0001:000B54FA       loc_100B64FA
 0001:000B5540       loc_100B6540
 0001:000B555B       loc_100B655B
 0001:000B557E       loc_100B657E
 0001:000B5595       loc_100B6595
 0001:000B55A0       cut1
 0001:000B55AC       loc_100B65AC
 0001:000B55B6       loc_100B65B6
 0001:000B55C4       loc_100B65C4
 0001:000B55CA       loc_100B65CA
 0001:000B55DC       loc_100B65DC
 0001:000B55F0       applicable_cut
 0001:000B562B       loc_100B662B
 0001:000B5640       loc_100B6640
 0001:000B5673       loc_100B6673
 0001:000B5687       loc_100B6687
 0001:000B5691       loc_100B6691
 0001:000B5695       loc_100B6695
 0001:000B56C6       loc_100B66C6
 0001:000B56D0       mkcldrn_cut
 0001:000B56F3       loc_100B66F3
 0001:000B56FE       loc_100B66FE
 0001:000B570D       loc_100B670D
 0001:000B5716       loc_100B6716
 0001:000B5723       loc_100B6723
 0001:000B5736       loc_100B6736
 0001:000B5745       loc_100B6745
 0001:000B5750       loc_100B6750
 0001:000B5770       loc_100B6770
 0001:000B5782       loc_100B6782
 0001:000B5785       loc_100B6785
 0001:000B5790       loc_100B6790
 0001:000B57B1       loc_100B67B1
 0001:000B57B5       loc_100B67B5
 0001:000B57BA       loc_100B67BA
 0001:000B57BD       loc_100B67BD
 0001:000B57C5       loc_100B67C5
 0001:000B57CF       loc_100B67CF
 0001:000B57DB       loc_100B67DB
 0001:000B5811       loc_100B6811
 0001:000B5869       loc_100B6869
 0001:000B591A       loc_100B691A
 0001:000B596F       loc_100B696F
 0001:000B59A1       loc_100B69A1
 0001:000B5A3D       loc_100B6A3D
 0001:000B5A8F       loc_100B6A8F
 0001:000B5B59       loc_100B6B59
 0001:000B5B7C       loc_100B6B7C
 0001:000B5B86       nada_12
 0001:000B5B9A       loc_100B6B9A
 0001:000B5BA3       loc_100B6BA3
 0001:000B5BB4       loc_100B6BB4
 0001:000B5BC5       loc_100B6BC5
 0001:000B5BD8       loc_100B6BD8
 0001:000B5BFF       loc_100B6BFF
 0001:000B5C47       loc_100B6C47
 0001:000B5C60       transpose_toms513
 0001:000B5CA2       loc_100B6CA2
 0001:000B5CB2       loc_100B6CB2
 0001:000B5CC1       loc_100B6CC1
 0001:000B5CD0       loc_100B6CD0
 0001:000B5CD3       loc_100B6CD3
 0001:000B5D22       loc_100B6D22
 0001:000B5D42       loc_100B6D42
 0001:000B5D52       loc_100B6D52
 0001:000B5D80       loc_100B6D80
 0001:000B5D8E       loc_100B6D8E
 0001:000B5E02       loc_100B6E02
 0001:000B5E2B       loc_100B6E2B
 0001:000B5E44       loc_100B6E44
 0001:000B5E52       loc_100B6E52
 0001:000B5E55       loc_100B6E55
 0001:000B5E98       loc_100B6E98
 0001:000B5EB8       loc_100B6EB8
 0001:000B5EC8       loc_100B6EC8
 0001:000B5ED3       loc_100B6ED3
 0001:000B5EF4       loc_100B6EF4
 0001:000B5F01       loc_100B6F01
 0001:000B5F19       loc_100B6F19
 0001:000B5F1B       loc_100B6F1B
 0001:000B5F29       loc_100B6F29
 0001:000B5F37       loc_100B6F37
 0001:000B5F40       apply_toms513
 0001:000B5F95       loc_100B6F95
 0001:000B5FA0       applicable_toms513
 0001:000B5FDD       loc_100B6FDD
 0001:000B5FF2       loc_100B6FF2
 0001:000B6023       loc_100B7023
 0001:000B6054       loc_100B7054
 0001:000B6060       mkcldrn_toms513
 0001:000B6090       awake_15
 0001:000B60B2       loc_100B70B2
 0001:000B60C8       loc_100B70C8
 0001:000B60DE       loc_100B70DE
 0001:000B60F0       print_41
 0001:000B6133       loc_100B7133
 0001:000B6148       loc_100B7148
 0001:000B615D       loc_100B715D
 0001:000B6170       destroy_18
 0001:000B6197       loc_100B7197
 0001:000B61AF       loc_100B71AF
 0001:000B61C7       loc_100B71C7
 0001:000B61D0       mkplan_33
 0001:000B6263       loc_100B7263
 0001:000B62B6       loc_100B72B6
 0001:000B62C1       loc_100B72C1
 0001:000B62D1       loc_100B72D1
 0001:000B62DD       loc_100B72DD
 0001:000B6346       loc_100B7346
 0001:000B634F       loc_100B734F
 0001:000B6360       _fftwf_rdft_vrank3_transpose_register
 0001:000B6370       loc_100B7370
 0001:000B63C2       loc_100B73C2
 0001:000B63F2       loc_100B73F2
 0001:000B6400       okp_0
 0001:000B6410       hb2_16
 0001:000B645A       loc_100B745A
 0001:000B7153       loc_100B8153
 0001:000B7160       _fftwf_codelet_hb2_16
 0001:000B7190       hb2_20
 0001:000B71E0       loc_100B81E0
 0001:000B8544       loc_100B9544
 0001:000B8550       _fftwf_codelet_hb2_20
 0001:000B8580       hb2_25
 0001:000B85D6       loc_100B95D6
 0001:000BA671       loc_100BB671
 0001:000BA680       _fftwf_codelet_hb2_25
 0001:000BA6B0       hb2_32
 0001:000BA706       loc_100BB706
 0001:000BCABC       loc_100BDABC
 0001:000BCAD0       _fftwf_codelet_hb2_32
 0001:000BCB00       hb2_4
 0001:000BCB40       loc_100BDB40
 0001:000BCD17       loc_100BDD17
 0001:000BCD20       _fftwf_codelet_hb2_4
 0001:000BCD50       hb2_5
 0001:000BCD93       loc_100BDD93
 0001:000BD0B2       loc_100BE0B2
 0001:000BD0C0       _fftwf_codelet_hb2_5
 0001:000BD0F0       hb2_8
 0001:000BD130       loc_100BE130
 0001:000BD604       loc_100BE604
 0001:000BD610       _fftwf_codelet_hb2_8
 0001:000BD640       hb_10
 0001:000BD691       loc_100BE691
 0001:000BDD32       loc_100BED32
 0001:000BDD40       _fftwf_codelet_hb_10
 0001:000BDD70       hb_12
 0001:000BDDBD       loc_100BEDBD
 0001:000BE5ED       loc_100BF5ED
 0001:000BE600       _fftwf_codelet_hb_12
 0001:000BE630       hb_15
 0001:000BE692       loc_100BF692
 0001:000BF29F       loc_100C029F
 0001:000BF2B0       _fftwf_codelet_hb_15
 0001:000BF2E0       hb_16
 0001:000BF335       loc_100C0335
 0001:000BFE8C       loc_100C0E8C
 0001:000BFEA0       _fftwf_codelet_hb_16
 0001:000BFED0       hb_2
 0001:000BFF22       loc_100C0F22
 0001:000C018E       loc_100C118E
 0001:000C0194       loc_100C1194
 0001:000C01B0       loc_100C11B0
 0001:000C0253       loc_100C1253
 0001:000C0254       loc_100C1254
 0001:000C0260       _fftwf_codelet_hb_2
 0001:000C0290       hb_20
 0001:000C02F2       loc_100C12F2
 0001:000C1372       loc_100C2372
 0001:000C1380       _fftwf_codelet_hb_20
 0001:000C13B0       hb_25
 0001:000C1416       loc_100C2416
 0001:000C2ED1       loc_100C3ED1
 0001:000C2EE0       _fftwf_codelet_hb_25
 0001:000C2F10       hb_3
 0001:000C2F50       loc_100C3F50
 0001:000C30BF       loc_100C40BF
 0001:000C30D0       _fftwf_codelet_hb_3
 0001:000C3100       hb_32
 0001:000C3168       loc_100C4168
 0001:000C4DFA       loc_100C5DFA
 0001:000C4E00       _fftwf_codelet_hb_32
 0001:000C4E30       hb_4
 0001:000C4E70       loc_100C5E70
 0001:000C504E       loc_100C604E
 0001:000C5060       _fftwf_codelet_hb_4
 0001:000C5090       hb_5
 0001:000C50D7       loc_100C60D7
 0001:000C53E9       loc_100C63E9
 0001:000C53F0       _fftwf_codelet_hb_5
 0001:000C5420       hb_6
 0001:000C5465       loc_100C6465
 0001:000C57D7       loc_100C67D7
 0001:000C57E0       _fftwf_codelet_hb_6
 0001:000C5810       hb_64
 0001:000C5878       loc_100C6878
 0001:000C9FA0       loc_100CAFA0
 0001:000C9FB0       _fftwf_codelet_hb_64
 0001:000C9FE0       hb_7
 0001:000CA039       loc_100CB039
 0001:000CA49A       loc_100CB49A
 0001:000CA4A0       _fftwf_codelet_hb_7
 0001:000CA4D0       hb_8
 0001:000CA515       loc_100CB515
 0001:000CA9FC       loc_100CB9FC
 0001:000CAA10       _fftwf_codelet_hb_8
 0001:000CAA40       hb_9
 0001:000CAA93       loc_100CBA93
 0001:000CB117       loc_100CC117
 0001:000CB120       _fftwf_codelet_hb_9
 0001:000CB150       hc2cb2_16
 0001:000CB1B1       loc_100CC1B1
 0001:000CB1B7       loc_100CC1B7
 0001:000CBE89       loc_100CCE89
 0001:000CBE90       _fftwf_codelet_hc2cb2_16
 0001:000CBED0       hc2cb2_20
 0001:000CBF37       loc_100CCF37
 0001:000CBF3D       loc_100CCF3D
 0001:000CD275       loc_100CE275
 0001:000CD280       _fftwf_codelet_hc2cb2_20
 0001:000CD2C0       hc2cb2_32
 0001:000CD32D       loc_100CE32D
 0001:000CD333       loc_100CE333
 0001:000CF649       loc_100D0649
 0001:000CF650       _fftwf_codelet_hc2cb2_32
 0001:000CF690       hc2cb2_4
 0001:000CF6E0       loc_100D06E0
 0001:000CF6E6       loc_100D06E6
 0001:000CF89C       loc_100D089C
 0001:000CF8B0       _fftwf_codelet_hc2cb2_4
 0001:000CF8F0       hc2cb2_8
 0001:000CF940       loc_100D0940
 0001:000CF943       loc_100D0943
 0001:000CFDE5       loc_100D0DE5
 0001:000CFDF0       _fftwf_codelet_hc2cb2_8
 0001:000CFE30       _fftwf_codelet_hc2cbdft2_16
 0001:000CFE70       hc2cbdft_20
 0001:000CFEDE       loc_100D0EDE
 0001:000D1149       loc_100D2149
 0001:000D1150       _fftwf_codelet_hc2cbdft2_20
 0001:000D1190       _fftwf_codelet_hc2cbdft2_32
 0001:000D11D0       _fftwf_codelet_hc2cbdft2_4
 0001:000D1210       hc2cbdft_8
 0001:000D1261       loc_100D2261
 0001:000D17D0       loc_100D27D0
 0001:000D17E0       _fftwf_codelet_hc2cbdft2_8
 0001:000D1820       hc2cbdft_10
 0001:000D187A       loc_100D287A
 0001:000D1FDF       loc_100D2FDF
 0001:000D2000       _fftwf_codelet_hc2cbdft_10
 0001:000D2040       hc2cbdft_12
 0001:000D2099       loc_100D3099
 0001:000D29D7       loc_100D39D7
 0001:000D29E0       _fftwf_codelet_hc2cbdft_12
 0001:000D2A20       hc2cbdft_16
 0001:000D2A84       loc_100D3A84
 0001:000D3772       loc_100D4772
 0001:000D3780       _fftwf_codelet_hc2cbdft_16
 0001:000D37C0       hc2cbdft_2
 0001:000D3818       loc_100D4818
 0001:000D381B       loc_100D481B
 0001:000D3AD3       loc_100D4AD3
 0001:000D3AD9       loc_100D4AD9
 0001:000D3B00       loc_100D4B00
 0001:000D3B03       loc_100D4B03
 0001:000D3BB9       loc_100D4BB9
 0001:000D3BBB       loc_100D4BBB
 0001:000D3BC0       _fftwf_codelet_hc2cbdft_2
 0001:000D3C00       _fftwf_codelet_hc2cbdft_20
 0001:000D3C40       hc2cbdft_32
 0001:000D3CB4       loc_100D4CB4
 0001:000D5C34       loc_100D6C34
 0001:000D5C40       _fftwf_codelet_hc2cbdft_32
 0001:000D5C80       hc2cbdft_4
 0001:000D5CC7       loc_100D6CC7
 0001:000D5CCA       loc_100D6CCA
 0001:000D5EEE       loc_100D6EEE
 0001:000D5F00       _fftwf_codelet_hc2cbdft_4
 0001:000D5F40       hc2cbdft_6
 0001:000D5F8E       loc_100D6F8E
 0001:000D634C       loc_100D734C
 0001:000D6360       _fftwf_codelet_hc2cbdft_6
 0001:000D63A0       _fftwf_codelet_hc2cbdft_8
 0001:000D63E0       hc2cb_10
 0001:000D643D       loc_100D743D
 0001:000D6AD1       loc_100D7AD1
 0001:000D6AE0       _fftwf_codelet_hc2cb_10
 0001:000D6B20       hc2cb_12
 0001:000D6B76       loc_100D7B76
 0001:000D7398       loc_100D8398
 0001:000D73A0       _fftwf_codelet_hc2cb_12
 0001:000D73E0       hc2cb_16
 0001:000D7441       loc_100D8441
 0001:000D7F69       loc_100D8F69
 0001:000D7F70       _fftwf_codelet_hc2cb_16
 0001:000D7FB0       hc2cb_2
 0001:000D8008       loc_100D9008
 0001:000D800B       loc_100D900B
 0001:000D8213       loc_100D9213
 0001:000D8219       loc_100D9219
 0001:000D8240       loc_100D9240
 0001:000D8243       loc_100D9243
 0001:000D82CD       loc_100D92CD
 0001:000D82CF       loc_100D92CF
 0001:000D82E0       _fftwf_codelet_hc2cb_2
 0001:000D8320       hc2cb_20
 0001:000D838E       loc_100D938E
 0001:000D9413       loc_100DA413
 0001:000D9420       _fftwf_codelet_hc2cb_20
 0001:000D9460       hc2cb_32
 0001:000D94D4       loc_100DA4D4
 0001:000DB13D       loc_100DC13D
 0001:000DB150       _fftwf_codelet_hc2cb_32
 0001:000DB190       hc2cb_4
 0001:000DB1D7       loc_100DC1D7
 0001:000DB1DA       loc_100DC1DA
 0001:000DB39D       loc_100DC39D
 0001:000DB3B0       _fftwf_codelet_hc2cb_4
 0001:000DB3F0       hc2cb_6
 0001:000DB441       loc_100DC441
 0001:000DB7AB       loc_100DC7AB
 0001:000DB7B0       _fftwf_codelet_hc2cb_6
 0001:000DB7F0       hc2cb_8
 0001:000DB841       loc_100DC841
 0001:000DBD02       loc_100DCD02
 0001:000DBD10       _fftwf_codelet_hc2cb_8
 0001:000DBD50       r2cbIII_10
 0001:000DBDB1       loc_100DCDB1
 0001:000DBDB4       loc_100DCDB4
 0001:000DBFFB       loc_100DCFFB
 0001:000DC000       _fftwf_codelet_r2cbIII_10
 0001:000DC060       r2cbIII_12
 0001:000DC0C7       loc_100DD0C7
 0001:000DC0CA       loc_100DD0CA
 0001:000DC38D       loc_100DD38D
 0001:000DC3A0       _fftwf_codelet_r2cbIII_12
 0001:000DC400       r2cbIII_15
 0001:000DC467       loc_100DD467
 0001:000DC482       loc_100DD482
 0001:000DC8D3       loc_100DD8D3
 0001:000DC8E0       _fftwf_codelet_r2cbIII_15
 0001:000DC940       r2cbIII_16
 0001:000DC9B3       loc_100DD9B3
 0001:000DC9B6       loc_100DD9B6
 0001:000DCDC0       loc_100DDDC0
 0001:000DCDD0       _fftwf_codelet_r2cbIII_16
 0001:000DCE30       r2cbIII_2
 0001:000DCE73       loc_100DDE73
 0001:000DCEF4       loc_100DDEF4
 0001:000DCEFA       loc_100DDEFA
 0001:000DCF13       loc_100DDF13
 0001:000DCF33       loc_100DDF33
 0001:000DCF40       _fftwf_codelet_r2cbIII_2
 0001:000DCFA0       r2cbIII_20
 0001:000DD013       loc_100DE013
 0001:000DD016       loc_100DE016
 0001:000DD56B       loc_100DE56B
 0001:000DD570       _fftwf_codelet_r2cbIII_20
 0001:000DD5D0       r2cbIII_25
 0001:000DD64C       loc_100DE64C
 0001:000DD652       loc_100DE652
 0001:000DDF6C       loc_100DEF6C
 0001:000DDF70       _fftwf_codelet_r2cbIII_25
 0001:000DDFD0       r2cbIII_3
 0001:000DE019       loc_100DF019
 0001:000DE1B4       loc_100DF1B4
 0001:000DE1BA       loc_100DF1BA
 0001:000DE1D6       loc_100DF1D6
 0001:000DE237       loc_100DF237
 0001:000DE250       _fftwf_codelet_r2cbIII_3
 0001:000DE2B0       r2cbIII_32
 0001:000DE335       loc_100DF335
 0001:000DE343       loc_100DF343
 0001:000DEDCC       loc_100DFDCC
 0001:000DEDD0       _fftwf_codelet_r2cbIII_32
 0001:000DEE30       r2cbIII_4
 0001:000DEE76       loc_100DFE76
 0001:000DF0E4       loc_100E00E4
 0001:000DF0EA       loc_100E00EA
 0001:000DF117       loc_100E0117
 0001:000DF11A       loc_100E011A
 0001:000DF1B3       loc_100E01B3
 0001:000DF1C0       _fftwf_codelet_r2cbIII_4
 0001:000DF220       r2cbIII_5
 0001:000DF27B       loc_100E027B
 0001:000DF27E       loc_100E027E
 0001:000DF384       loc_100E0384
 0001:000DF390       _fftwf_codelet_r2cbIII_5
 0001:000DF3F0       r2cbIII_6
 0001:000DF44B       loc_100E044B
 0001:000DF44E       loc_100E044E
 0001:000DF563       loc_100E0563
 0001:000DF570       _fftwf_codelet_r2cbIII_6
 0001:000DF5D0       r2cbIII_64
 0001:000DF655       loc_100E0655
 0001:000DF663       loc_100E0663
 0001:000E1223       loc_100E2223
 0001:000E1230       _fftwf_codelet_r2cbIII_64
 0001:000E1290       r2cbIII_7
 0001:000E12F1       loc_100E22F1
 0001:000E1302       loc_100E2302
 0001:000E1488       loc_100E2488
 0001:000E1490       _fftwf_codelet_r2cbIII_7
 0001:000E14F0       r2cbIII_8
 0001:000E154B       loc_100E254B
 0001:000E154E       loc_100E254E
 0001:000E16FA       loc_100E26FA
 0001:000E1700       _fftwf_codelet_r2cbIII_8
 0001:000E1760       r2cbIII_9
 0001:000E17C7       loc_100E27C7
 0001:000E17D2       loc_100E27D2
 0001:000E1A4D       loc_100E2A4D
 0001:000E1A60       _fftwf_codelet_r2cbIII_9
 0001:000E1AC0       r2cb_10
 0001:000E1B27       loc_100E2B27
 0001:000E1B3E       loc_100E2B3E
 0001:000E1D9E       loc_100E2D9E
 0001:000E1DB0       _fftwf_codelet_r2cb_10
 0001:000E1E10       r2cb_11
 0001:000E1E80       loc_100E2E80
 0001:000E1EA9       loc_100E2EA9
 0001:000E21E3       loc_100E31E3
 0001:000E21F0       _fftwf_codelet_r2cb_11
 0001:000E2250       r2cb_12
 0001:000E22AB       loc_100E32AB
 0001:000E22AE       loc_100E32AE
 0001:000E253A       loc_100E353A
 0001:000E2540       _fftwf_codelet_r2cb_12
 0001:000E25A0       r2cb_128
 0001:000E2625       loc_100E3625
 0001:000E2633       loc_100E3633
 0001:000E63A1       loc_100E73A1
 0001:000E63B0       _fftwf_codelet_r2cb_128
 0001:000E6410       r2cb_13
 0001:000E646B       loc_100E746B
 0001:000E646E       loc_100E746E
 0001:000E693B       loc_100E793B
 0001:000E6940       _fftwf_codelet_r2cb_13
 0001:000E69A0       r2cb_14
 0001:000E6A0D       loc_100E7A0D
 0001:000E6A10       loc_100E7A10
 0001:000E6D6D       loc_100E7D6D
 0001:000E6D80       _fftwf_codelet_r2cb_14
 0001:000E6DE0       r2cb_15
 0001:000E6E53       loc_100E7E53
 0001:000E6E56       loc_100E7E56
 0001:000E7234       loc_100E8234
 0001:000E7240       _fftwf_codelet_r2cb_15
 0001:000E72A0       r2cb_16
 0001:000E7307       loc_100E8307
 0001:000E730A       loc_100E830A
 0001:000E76C8       loc_100E86C8
 0001:000E76D0       _fftwf_codelet_r2cb_16
 0001:000E7730       r2cb_2
 0001:000E7771       loc_100E8771
 0001:000E782B       loc_100E882B
 0001:000E7831       loc_100E8831
 0001:000E7848       loc_100E8848
 0001:000E7878       loc_100E8878
 0001:000E7880       _fftwf_codelet_r2cb_2
 0001:000E78E0       r2cb_20
 0001:000E794D       loc_100E894D
 0001:000E7950       loc_100E8950
 0001:000E7E2E       loc_100E8E2E
 0001:000E7E40       _fftwf_codelet_r2cb_20
 0001:000E7EA0       r2cb_25
 0001:000E7F22       loc_100E8F22
 0001:000E7F2A       loc_100E8F2A
 0001:000E887E       loc_100E987E
 0001:000E8890       _fftwf_codelet_r2cb_25
 0001:000E88F0       r2cb_3
 0001:000E8939       loc_100E9939
 0001:000E8ADF       loc_100E9ADF
 0001:000E8AE5       loc_100E9AE5
 0001:000E8B01       loc_100E9B01
 0001:000E8B67       loc_100E9B67
 0001:000E8B80       _fftwf_codelet_r2cb_3
 0001:000E8BE0       r2cb_32
 0001:000E8C65       loc_100E9C65
 0001:000E8C6B       loc_100E9C6B
 0001:000E954D       loc_100EA54D
 0001:000E9560       _fftwf_codelet_r2cb_32
 0001:000E95C0       r2cb_4
 0001:000E9600       loc_100EA600
 0001:000E986F       loc_100EA86F
 0001:000E9875       loc_100EA875
 0001:000E98A2       loc_100EA8A2
 0001:000E98A5       loc_100EA8A5
 0001:000E993F       loc_100EA93F
 0001:000E9950       _fftwf_codelet_r2cb_4
 0001:000E99B0       r2cb_5
 0001:000E9A11       loc_100EAA11
 0001:000E9A1C       loc_100EAA1C
 0001:000E9B22       loc_100EAB22
 0001:000E9B30       _fftwf_codelet_r2cb_5
 0001:000E9B90       r2cb_6
 0001:000E9BEB       loc_100EABEB
 0001:000E9BEE       loc_100EABEE
 0001:000E9D0D       loc_100EAD0D
 0001:000E9D20       _fftwf_codelet_r2cb_6
 0001:000E9D90       r2cb_64
 0001:000E9E0F       loc_100EAE0F
 0001:000E9E15       loc_100EAE15
 0001:000EB633       loc_100EC633
 0001:000EB640       _fftwf_codelet_r2cb_64
 0001:000EB6A0       r2cb_7
 0001:000EB701       loc_100EC701
 0001:000EB712       loc_100EC712
 0001:000EB89B       loc_100EC89B
 0001:000EB8A0       _fftwf_codelet_r2cb_7
 0001:000EB900       r2cb_8
 0001:000EB95B       loc_100EC95B
 0001:000EB95E       loc_100EC95E
 0001:000EBAF1       loc_100ECAF1
 0001:000EBB00       _fftwf_codelet_r2cb_8
 0001:000EBB60       r2cb_9
 0001:000EBBC7       loc_100ECBC7
 0001:000EBBD4       loc_100ECBD4
 0001:000EBE56       loc_100ECE56
 0001:000EBE60       _fftwf_codelet_r2cb_9
 0001:000EBEC0       hc2cf2_16
 0001:000EBF21       loc_100ECF21
 0001:000EBF27       loc_100ECF27
 0001:000ECB57       loc_100EDB57
 0001:000ECB60       _fftwf_codelet_hc2cf2_16
 0001:000ECBA0       hc2cf2_20
 0001:000ECC07       loc_100EDC07
 0001:000ECC0D       loc_100EDC0D
 0001:000EDDEF       loc_100EEDEF
 0001:000EDE00       _fftwf_codelet_hc2cf2_20
 0001:000EDE40       hc2cf2_32
 0001:000EDEAD       loc_100EEEAD
 0001:000EDEB3       loc_100EEEB3
 0001:000EFE3A       loc_100F0E3A
 0001:000EFE40       _fftwf_codelet_hc2cf2_32
 0001:000EFE80       hc2cf2_4
 0001:000EFEC7       loc_100F0EC7
 0001:000EFECA       loc_100F0ECA
 0001:000F0093       loc_100F1093
 0001:000F00A0       _fftwf_codelet_hc2cf2_4
 0001:000F00E0       hc2cf2_8
 0001:000F0130       loc_100F1130
 0001:000F0133       loc_100F1133
 0001:000F0641       loc_100F1641
 0001:000F0650       _fftwf_codelet_hc2cf2_8
 0001:000F0690       hc2cfdft2_16
 0001:000F06F1       loc_100F16F1
 0001:000F06F7       loc_100F16F7
 0001:000F14F0       loc_100F24F0
 0001:000F1500       _fftwf_codelet_hc2cfdft2_16
 0001:000F1540       hc2cfdft2_20
 0001:000F15AD       loc_100F25AD
 0001:000F15B3       loc_100F25B3
 0001:000F289E       loc_100F389E
 0001:000F28B0       _fftwf_codelet_hc2cfdft2_20
 0001:000F28F0       hc2cfdft2_32
 0001:000F295D       loc_100F395D
 0001:000F2963       loc_100F3963
 0001:000F4C92       loc_100F5C92
 0001:000F4CA0       _fftwf_codelet_hc2cfdft2_32
 0001:000F4CE0       hc2cfdft2_4
 0001:000F4D34       loc_100F5D34
 0001:000F4D3A       loc_100F5D3A
 0001:000F4F53       loc_100F5F53
 0001:000F4F60       _fftwf_codelet_hc2cfdft2_4
 0001:000F4FA0       hc2cfdft2_8
 0001:000F4FF3       loc_100F5FF3
 0001:000F4FF6       loc_100F5FF6
 0001:000F5575       loc_100F6575
 0001:000F5580       _fftwf_codelet_hc2cfdft2_8
 0001:000F55C0       hc2cfdft_10
 0001:000F5626       loc_100F6626
 0001:000F5D1D       loc_100F6D1D
 0001:000F5D30       _fftwf_codelet_hc2cfdft_10
 0001:000F5D70       hc2cfdft_12
 0001:000F5DC9       loc_100F6DC9
 0001:000F6687       loc_100F7687
 0001:000F6690       _fftwf_codelet_hc2cfdft_12
 0001:000F66D0       hc2cfdft_16
 0001:000F6737       loc_100F7737
 0001:000F73BE       loc_100F83BE
 0001:000F73D0       _fftwf_codelet_hc2cfdft_16
 0001:000F7410       hc2cfdft_2
 0001:000F746E       loc_100F846E
 0001:000F7471       loc_100F8471
 0001:000F7749       loc_100F8749
 0001:000F774F       loc_100F874F
 0001:000F7774       loc_100F8774
 0001:000F7777       loc_100F8777
 0001:000F7835       loc_100F8835
 0001:000F7839       loc_100F8839
 0001:000F7840       _fftwf_codelet_hc2cfdft_2
 0001:000F7880       hc2cfdft_20
 0001:000F78F4       loc_100F88F4
 0001:000F89D3       loc_100F99D3
 0001:000F89E0       _fftwf_codelet_hc2cfdft_20
 0001:000F8A20       hc2cfdft_32
 0001:000F8A94       loc_100F9A94
 0001:000FA8D2       loc_100FB8D2
 0001:000FA8E0       _fftwf_codelet_hc2cfdft_32
 0001:000FA920       hc2cfdft_4
 0001:000FA96D       loc_100FB96D
 0001:000FA970       loc_100FB970
 0001:000FAB95       loc_100FBB95
 0001:000FABA0       _fftwf_codelet_hc2cfdft_4
 0001:000FABE0       hc2cfdft_6
 0001:000FAC37       loc_100FBC37
 0001:000FB001       loc_100FC001
 0001:000FB010       _fftwf_codelet_hc2cfdft_6
 0001:000FB050       hc2cfdft_8
 0001:000FB0A7       loc_100FC0A7
 0001:000FB5CC       loc_100FC5CC
 0001:000FB5E0       _fftwf_codelet_hc2cfdft_8
 0001:000FB620       hc2cf_10
 0001:000FB67D       loc_100FC67D
 0001:000FBCE2       loc_100FCCE2
 0001:000FBCF0       _fftwf_codelet_hc2cf_10
 0001:000FBD30       hc2cf_12
 0001:000FBD86       loc_100FCD86
 0001:000FC55D       loc_100FD55D
 0001:000FC570       _fftwf_codelet_hc2cf_12
 0001:000FC5B0       hc2cf_16
 0001:000FC60E       loc_100FD60E
 0001:000FD195       loc_100FE195
 0001:000FD1A0       _fftwf_codelet_hc2cf_16
 0001:000FD1E0       hc2cf_2
 0001:000FD240       loc_100FE240
 0001:000FD243       loc_100FE243
 0001:000FD46B       loc_100FE46B
 0001:000FD471       loc_100FE471
 0001:000FD496       loc_100FE496
 0001:000FD499       loc_100FE499
 0001:000FD52A       loc_100FE52A
 0001:000FD52C       loc_100FE52C
 0001:000FD540       _fftwf_codelet_hc2cf_2
 0001:000FD580       hc2cf_20
 0001:000FD5EB       loc_100FE5EB
 0001:000FE5E7       loc_100FF5E7
 0001:000FE5F0       _fftwf_codelet_hc2cf_20
 0001:000FE630       hc2cf_32
 0001:000FE6A1       loc_100FF6A1
 0001:001001CC       loc_101011CC
 0001:001001E0       _fftwf_codelet_hc2cf_32
 0001:00100220       hc2cf_4
 0001:00100267       loc_10101267
 0001:0010026A       loc_1010126A
 0001:0010042F       loc_1010142F
 0001:00100440       _fftwf_codelet_hc2cf_4
 0001:00100480       hc2cf_6
 0001:001004D1       loc_101014D1
 0001:00100850       loc_10101850
 0001:00100860       _fftwf_codelet_hc2cf_6
 0001:001008A0       hc2cf_8
 0001:001008EE       loc_101018EE
 0001:00100DDA       loc_10101DDA
 0001:00100DE0       _fftwf_codelet_hc2cf_8
 0001:00100E20       hf2_16
 0001:00100E64       loc_10101E64
 0001:00101A98       loc_10102A98
 0001:00101AA0       _fftwf_codelet_hf2_16
 0001:00101AD0       hf2_20
 0001:00101B1A       loc_10102B1A
 0001:00102C9F       loc_10103C9F
 0001:00102CB0       _fftwf_codelet_hf2_20
 0001:00102CE0       hf2_25
 0001:00102D30       loc_10103D30
 0001:00104A0E       loc_10105A0E
 0001:00104A20       _fftwf_codelet_hf2_25
 0001:00104A50       hf2_32
 0001:00104AA0       loc_10105AA0
 0001:001069AF       loc_101079AF
 0001:001069C0       _fftwf_codelet_hf2_32
 0001:001069F0       hf2_4
 0001:00106A30       loc_10107A30
 0001:00106C16       loc_10107C16
 0001:00106C20       _fftwf_codelet_hf2_4
 0001:00106C50       hf2_5
 0001:00106C8D       loc_10107C8D
 0001:00106FCA       loc_10107FCA
 0001:00106FD0       _fftwf_codelet_hf2_5
 0001:00107000       hf2_8
 0001:00107036       loc_10108036
 0001:00107554       loc_10108554
 0001:00107560       _fftwf_codelet_hf2_8
 0001:00107590       hf_10
 0001:001075DE       loc_101085DE
 0001:00107C42       loc_10108C42
 0001:00107C50       _fftwf_codelet_hf_10
 0001:00107C80       hf_12
 0001:00107CC7       loc_10108CC7
 0001:0010847C       loc_1010947C
 0001:00108490       _fftwf_codelet_hf_12
 0001:001084C0       hf_15
 0001:0010851C       loc_1010951C
 0001:00109056       loc_1010A056
 0001:00109060       _fftwf_codelet_hf_15
 0001:00109090       hf_16
 0001:001090E2       loc_1010A0E2
 0001:00109C28       loc_1010AC28
 0001:00109C30       _fftwf_codelet_hf_16
 0001:00109C60       hf_2
 0001:00109CB2       loc_1010ACB2
 0001:00109F2E       loc_1010AF2E
 0001:00109F34       loc_1010AF34
 0001:00109F50       loc_1010AF50
 0001:00109FF6       loc_1010AFF6
 0001:00109FF7       loc_1010AFF7
 0001:0010A000       _fftwf_codelet_hf_2
 0001:0010A030       hf_20
 0001:0010A08C       loc_1010B08C
 0001:0010B026       loc_1010C026
 0001:0010B030       _fftwf_codelet_hf_20
 0001:0010B060       hf_25
 0001:0010B0C0       loc_1010C0C0
 0001:0010C9D1       loc_1010D9D1
 0001:0010C9E0       _fftwf_codelet_hf_25
 0001:0010CA10       hf_3
 0001:0010CA47       loc_1010DA47
 0001:0010CBC4       loc_1010DBC4
 0001:0010CBD0       _fftwf_codelet_hf_3
 0001:0010CC00       hf_32
 0001:0010CC62       loc_1010DC62
 0001:0010E730       loc_1010F730
 0001:0010E740       _fftwf_codelet_hf_32
 0001:0010E770       hf_4
 0001:0010E7B0       loc_1010F7B0
 0001:0010E994       loc_1010F994
 0001:0010E9A0       _fftwf_codelet_hf_4
 0001:0010E9D0       hf_5
 0001:0010EA14       loc_1010FA14
 0001:0010ED0F       loc_1010FD0F
 0001:0010ED20       _fftwf_codelet_hf_5
 0001:0010ED50       hf_6
 0001:0010ED92       loc_1010FD92
 0001:0010F107       loc_10110107
 0001:0010F110       _fftwf_codelet_hf_6
 0001:0010F140       hf_64
 0001:0010F1A2       loc_101101A2
 0001:0011336D       loc_1011436D
 0001:00113380       _fftwf_codelet_hf_64
 0001:001133B0       hf_7
 0001:00113406       loc_10114406
 0001:00113850       loc_10114850
 0001:00113860       _fftwf_codelet_hf_7
 0001:00113890       hf_8
 0001:001138D2       loc_101148D2
 0001:00113DA3       loc_10114DA3
 0001:00113DB0       _fftwf_codelet_hf_8
 0001:00113DE0       hf_9
 0001:00113E30       loc_10114E30
 0001:0011449B       loc_1011549B
 0001:001144A0       _fftwf_codelet_hf_9
 0001:001144D0       r2cfII_10
 0001:00114525       loc_10115525
 0001:00114528       loc_10115528
 0001:00114781       loc_10115781
 0001:00114790       _fftwf_codelet_r2cfII_10
 0001:001147F0       r2cfII_12
 0001:0011484B       loc_1011584B
 0001:0011485C       loc_1011585C
 0001:00114B3C       loc_10115B3C
 0001:00114B40       _fftwf_codelet_r2cfII_12
 0001:00114BA0       r2cfII_15
 0001:00114C07       loc_10115C07
 0001:00114C0A       loc_10115C0A
 0001:00115048       loc_10116048
 0001:00115050       _fftwf_codelet_r2cfII_15
 0001:001150B0       r2cfII_16
 0001:00115126       loc_10116126
 0001:00115129       loc_10116129
 0001:0011556F       loc_1011656F
 0001:00115580       _fftwf_codelet_r2cfII_16
 0001:001155E0       r2cfII_2
 0001:00115623       loc_10116623
 0001:00115699       loc_10116699
 0001:0011569F       loc_1011669F
 0001:001156C0       loc_101166C0
 0001:001156DB       loc_101166DB
 0001:001156F0       _fftwf_codelet_r2cfII_2
 0001:00115750       r2cfII_20
 0001:001157BB       loc_101167BB
 0001:00115DA9       loc_10116DA9
 0001:00115DB0       _fftwf_codelet_r2cfII_20
 0001:00115E10       r2cfII_25
 0001:00115E8F       loc_10116E8F
 0001:00115E95       loc_10116E95
 0001:00116AE1       loc_10117AE1
 0001:00116AF0       _fftwf_codelet_r2cfII_25
 0001:00116B50       r2cfII_3
 0001:00116B99       loc_10117B99
 0001:00116D3B       loc_10117D3B
 0001:00116D41       loc_10117D41
 0001:00116D5D       loc_10117D5D
 0001:00116DC0       loc_10117DC0
 0001:00116DD0       _fftwf_codelet_r2cfII_3
 0001:00116E30       r2cfII_32
 0001:00116EAF       loc_10117EAF
 0001:00116EB5       loc_10117EB5
 0001:001179E5       loc_101189E5
 0001:001179F0       _fftwf_codelet_r2cfII_32
 0001:00117A50       r2cfII_4
 0001:00117A91       loc_10118A91
 0001:00117CF3       loc_10118CF3
 0001:00117CF6       loc_10118CF6
 0001:00117D19       loc_10118D19
 0001:00117DB7       loc_10118DB7
 0001:00117DC0       _fftwf_codelet_r2cfII_4
 0001:00117E20       r2cfII_5
 0001:00117E70       loc_10118E70
 0001:00117E73       loc_10118E73
 0001:00117F8F       loc_10118F8F
 0001:00117FA0       _fftwf_codelet_r2cfII_5
 0001:00118000       r2cfII_6
 0001:00118058       loc_10119058
 0001:0011805B       loc_1011905B
 0001:00118175       loc_10119175
 0001:00118180       _fftwf_codelet_r2cfII_6
 0001:001181E0       r2cfII_64
 0001:00118265       loc_10119265
 0001:00118273       loc_10119273
 0001:00119F53       loc_1011AF53
 0001:00119F60       _fftwf_codelet_r2cfII_64
 0001:00119FC0       r2cfII_7
 0001:0011A01E       loc_1011B01E
 0001:0011A033       loc_1011B033
 0001:0011A1E3       loc_1011B1E3
 0001:0011A1F0       _fftwf_codelet_r2cfII_7
 0001:0011A250       r2cfII_8
 0001:0011A2AB       loc_1011B2AB
 0001:0011A2B6       loc_1011B2B6
 0001:0011A463       loc_1011B463
 0001:0011A470       _fftwf_codelet_r2cfII_8
 0001:0011A4D0       r2cfII_9
 0001:0011A531       loc_1011B531
 0001:0011A536       loc_1011B536
 0001:0011A7E4       loc_1011B7E4
 0001:0011A7F0       _fftwf_codelet_r2cfII_9
 0001:0011A850       r2cf_10
 0001:0011A8A5       loc_1011B8A5
 0001:0011A8A8       loc_1011B8A8
 0001:0011AB15       loc_1011BB15
 0001:0011AB20       _fftwf_codelet_r2cf_10
 0001:0011AB80       r2cf_11
 0001:0011ABE1       loc_1011BBE1
 0001:0011ABEC       loc_1011BBEC
 0001:0011AFA7       loc_1011BFA7
 0001:0011AFB0       _fftwf_codelet_r2cf_11
 0001:0011B010       r2cf_12
 0001:0011B068       loc_1011C068
 0001:0011B06B       loc_1011C06B
 0001:0011B32B       loc_1011C32B
 0001:0011B330       _fftwf_codelet_r2cf_12
 0001:0011B3B0       r2cf_128
 0001:0011B42F       loc_1011C42F
 0001:0011B435       loc_1011C435
 0001:0011F291       loc_10120291
 0001:0011F2A0       _fftwf_codelet_r2cf_128
 0001:0011F300       r2cf_13
 0001:0011F35B       loc_1012035B
 0001:0011F35E       loc_1012035E
 0001:0011F864       loc_10120864
 0001:0011F870       _fftwf_codelet_r2cf_13
 0001:0011F8D0       r2cf_14
 0001:0011F93D       loc_1012093D
 0001:0011F940       loc_10120940
 0001:0011FCD2       loc_10120CD2
 0001:0011FCE0       _fftwf_codelet_r2cf_14
 0001:0011FD40       r2cf_15
 0001:0011FDA1       loc_10120DA1
 0001:0011FDA4       loc_10120DA4
 0001:0012020A       loc_1012120A
 0001:00120210       _fftwf_codelet_r2cf_15
 0001:00120270       r2cf_16
 0001:001202D1       loc_101212D1
 0001:001202D4       loc_101212D4
 0001:0012068B       loc_1012168B
 0001:00120690       _fftwf_codelet_r2cf_16
 0001:001206F0       r2cf_2
 0001:00120731       loc_10121731
 0001:00120803       loc_10121803
 0001:00120809       loc_10121809
 0001:00120820       loc_10121820
 0001:00120856       loc_10121856
 0001:00120860       _fftwf_codelet_r2cf_2
 0001:001208C0       r2cf_20
 0001:00120927       loc_10121927
 0001:0012092A       loc_1012192A
 0001:00120E80       loc_10121E80
 0001:00120E90       _fftwf_codelet_r2cf_20
 0001:00120EF0       r2cf_25
 0001:00120F75       loc_10121F75
 0001:00120F89       loc_10121F89
 0001:00121BD3       loc_10122BD3
 0001:00121BE0       _fftwf_codelet_r2cf_25
 0001:00121C40       r2cf_3
 0001:00121C89       loc_10122C89
 0001:00121E59       loc_10122E59
 0001:00121E5F       loc_10122E5F
 0001:00121E7F       loc_10122E7F
 0001:00121EEF       loc_10122EEF
 0001:00121F00       _fftwf_codelet_r2cf_3
 0001:00121F60       r2cf_32
 0001:00121FE5       loc_10122FE5
 0001:00121FEB       loc_10122FEB
 0001:0012294B       loc_1012394B
 0001:00122950       _fftwf_codelet_r2cf_32
 0001:001229B0       r2cf_4
 0001:001229F0       loc_101239F0
 0001:00122C5F       loc_10123C5F
 0001:00122C65       loc_10123C65
 0001:00122C92       loc_10123C92
 0001:00122C95       loc_10123C95
 0001:00122D30       loc_10123D30
 0001:00122D40       _fftwf_codelet_r2cf_4
 0001:00122DA0       r2cf_5
 0001:00122DFB       loc_10123DFB
 0001:00122E00       loc_10123E00
 0001:00122F2B       loc_10123F2B
 0001:00122F30       _fftwf_codelet_r2cf_5
 0001:00122F90       r2cf_6
 0001:00122FE8       loc_10123FE8
 0001:00122FEB       loc_10123FEB
 0001:00123113       loc_10124113
 0001:00123120       _fftwf_codelet_r2cf_6
 0001:00123180       r2cf_64
 0001:001231FF       loc_101241FF
 0001:00123205       loc_10124205
 0001:00124AB4       loc_10125AB4
 0001:00124AC0       _fftwf_codelet_r2cf_64
 0001:00124B20       r2cf_7
 0001:00124B72       loc_10125B72
 0001:00124B75       loc_10125B75
 0001:00124D3C       loc_10125D3C
 0001:00124D40       _fftwf_codelet_r2cf_7
 0001:00124DA0       r2cf_8
 0001:00124DF0       loc_10125DF0
 0001:00124DF3       loc_10125DF3
 0001:00124F85       loc_10125F85
 0001:00124F90       _fftwf_codelet_r2cf_8
 0001:00124FF0       r2cf_9
 0001:00125051       loc_10126051
 0001:0012505E       loc_1012605E
 0001:001252FA       loc_101262FA
 0001:00125300       _fftwf_codelet_r2cf_9
 0001:00125360       e01_8
 0001:001253B4       loc_101263B4
 0001:001253CE       loc_101263CE
 0001:001255CB       loc_101265CB
 0001:001255D0       _fftwf_codelet_e01_8
 0001:00125600       e10_8
 0001:00125640       loc_10126640
 0001:00125848       loc_10126848
 0001:00125850       _fftwf_codelet_e10_8
 0001:00125880       hc2cbv_okp
 0001:001258BD       loc_101268BD
 0001:001258CC       loc_101268CC
 0001:001258F4       loc_101268F4
 0001:00125900       hc2cbdftv_10
 0001:00125960       loc_10126960
 0001:00125EA2       loc_10126EA2
 0001:00125EB0       _fftwf_codelet_hc2cbdftv_10_sse2
 0001:00125EF0       hc2cbdftv_12
 0001:00125F50       loc_10126F50
 0001:0012657A       loc_1012757A
 0001:00126590       _fftwf_codelet_hc2cbdftv_12_sse2
 0001:001265D0       hc2cbdftv_16
 0001:00126630       loc_10127630
 0001:00127085       loc_10128085
 0001:00127090       _fftwf_codelet_hc2cbdftv_16_sse2
 0001:001270D0       hc2cbdftv_2
 0001:00127120       loc_10128120
 0001:00127194       loc_10128194
 0001:001271A0       _fftwf_codelet_hc2cbdftv_2_sse2
 0001:001271E0       hc2cbdftv_20
 0001:00127247       loc_10128247
 0001:0012724A       loc_1012824A
 0001:001281B7       loc_101291B7
 0001:001281C0       _fftwf_codelet_hc2cbdftv_20_sse2
 0001:00128200       hc2cbdftv_32
 0001:00128270       loc_10129270
 0001:00129D46       loc_1012AD46
 0001:00129D50       _fftwf_codelet_hc2cbdftv_32_sse2
 0001:00129D90       hc2cbdftv_4
 0001:00129DE2       loc_1012ADE2
 0001:00129F26       loc_1012AF26
 0001:00129F30       _fftwf_codelet_hc2cbdftv_4_sse2
 0001:00129F70       hc2cbdftv_6
 0001:00129FD0       loc_1012AFD0
 0001:0012A23E       loc_1012B23E
 0001:0012A250       _fftwf_codelet_hc2cbdftv_6_sse2
 0001:0012A290       hc2cbdftv_8
 0001:0012A2F0       loc_1012B2F0
 0001:0012A65C       loc_1012B65C
 0001:0012A670       _fftwf_codelet_hc2cbdftv_8_sse2
 0001:0012A6B0       hc2cfdftv_10
 0001:0012A710       loc_1012B710
 0001:0012A713       loc_1012B713
 0001:0012ACF1       loc_1012BCF1
 0001:0012AD00       _fftwf_codelet_hc2cfdftv_10_sse2
 0001:0012AD40       hc2cfdftv_12
 0001:0012ADB0       loc_1012BDB0
 0001:0012B417       loc_1012C417
 0001:0012B420       _fftwf_codelet_hc2cfdftv_12_sse2
 0001:0012B460       hc2cfdftv_16
 0001:0012B4D0       loc_1012C4D0
 0001:0012BD9A       loc_1012CD9A
 0001:0012BDB0       _fftwf_codelet_hc2cfdftv_16_sse2
 0001:0012BDF0       hc2cfdftv_2
 0001:0012BE42       loc_1012CE42
 0001:0012BEBB       loc_1012CEBB
 0001:0012BED0       _fftwf_codelet_hc2cfdftv_2_sse2
 0001:0012BF10       hc2cfdftv_20
 0001:0012BF80       loc_1012CF80
 0001:0012CDBF       loc_1012DDBF
 0001:0012CDD0       _fftwf_codelet_hc2cfdftv_20_sse2
 0001:0012CE10       hc2cfdftv_32
 0001:0012CE80       loc_1012DE80
 0001:0012CE83       loc_1012DE83
 0001:0012E66F       loc_1012F66F
 0001:0012E680       _fftwf_codelet_hc2cfdftv_32_sse2
 0001:0012E6C0       hc2cfdftv_4
 0001:0012E720       loc_1012F720
 0001:0012E87F       loc_1012F87F
 0001:0012E890       _fftwf_codelet_hc2cfdftv_4_sse2
 0001:0012E8D0       hc2cfdftv_6
 0001:0012E930       loc_1012F930
 0001:0012EBBF       loc_1012FBBF
 0001:0012EBD0       _fftwf_codelet_hc2cfdftv_6_sse2
 0001:0012EC10       hc2cfdftv_8
 0001:0012EC80       loc_1012FC80
 0001:0012EFF5       loc_1012FFF5
 0001:0012F000       _fftwf_codelet_hc2cfdftv_8_sse2
 0001:0012F040       apply_17
 0001:0012F0A0       loc_101300A0
 0001:0012F100       loc_10130100
 0001:0012F162       loc_10130162
 0001:0012F180       loc_10130180
 0001:0012F1A3       loc_101301A3
 0001:0012F1E2       loc_101301E2
 0001:0012F1F3       loc_101301F3
 0001:0012F200       print_42
 0001:0012F230       mkplan_34
 0001:0012F2D3       loc_101302D3
 0001:0012F2E8       loc_101302E8
 0001:0012F314       loc_10130314
 0001:0012F340       loc_10130340
 0001:0012F352       loc_10130352
 0001:0012F367       loc_10130367
 0001:0012F377       loc_10130377
 0001:0012F3C2       loc_101303C2
 0001:0012F3D7       loc_101303D7
 0001:0012F3FF       loc_101303FF
 0001:0012F407       nada_13
 0001:0012F418       loc_10130418
 0001:0012F431       loc_10130431
 0001:0012F43A       loc_1013043A
 0001:0012F44B       loc_1013044B
 0001:0012F4A0       loc_101304A0
 0001:0012F5AF       loc_101305AF
 0001:0012F5C0       mksolver_14
 0001:0012F61F       loc_1013061F
 0001:0012F640       _fftwf_redft00e_r2hc_pad_register
 0001:0012F660       apply_18
 0001:0012F6E1       loc_101306E1
 0001:0012F6E4       loc_101306E4
 0001:0012F718       loc_10130718
 0001:0012F792       loc_10130792
 0001:0012F7A9       loc_101307A9
 0001:0012F7AB       loc_101307AB
 0001:0012F7F0       loc_101307F0
 0001:0012F82C       loc_1013082C
 0001:0012F83D       loc_1013083D
 0001:0012F852       loc_10130852
 0001:0012F863       loc_10130863
 0001:0012F870       awake_16
 0001:0012F893       loc_10130893
 0001:0012F8C0       loc_101308C0
 0001:0012F8D0       print_43
 0001:0012F900       mkplan_35
 0001:0012F939       loc_10130939
 0001:0012F942       loc_10130942
 0001:0012F9A5       loc_101309A5
 0001:0012F9AB       loc_101309AB
 0001:0012F9BC       loc_101309BC
 0001:0012F9E0       loc_101309E0
 0001:0012F9F1       loc_101309F1
 0001:0012FA4E       loc_10130A4E
 0001:0012FAAE       loc_10130AAE
 0001:0012FAB9       loc_10130AB9
 0001:0012FAC6       loc_10130AC6
 0001:0012FADD       loc_10130ADD
 0001:0012FB90       apply_e
 0001:0012FC30       loc_10130C30
 0001:0012FC66       loc_10130C66
 0001:0012FC7E       loc_10130C7E
 0001:0012FCB2       loc_10130CB2
 0001:0012FCC2       loc_10130CC2
 0001:0012FD53       loc_10130D53
 0001:0012FE04       loc_10130E04
 0001:0012FE53       loc_10130E53
 0001:0012FE55       loc_10130E55
 0001:0012FE67       loc_10130E67
 0001:0012FE78       loc_10130E78
 0001:0012FE80       apply_o
 0001:0012FF12       loc_10130F12
 0001:0012FF43       loc_10130F43
 0001:0012FF64       loc_10130F64
 0001:0012FF96       loc_10130F96
 0001:0012FFB3       loc_10130FB3
 0001:00130051       loc_10131051
 0001:0013009A       loc_1013109A
 0001:001300C1       loc_101310C1
 0001:001300C4       loc_101310C4
 0001:001300E6       loc_101310E6
 0001:001300F4       loc_101310F4
 0001:00130162       loc_10131162
 0001:00130228       loc_10131228
 0001:00130279       loc_10131279
 0001:0013027B       loc_1013127B
 0001:00130290       loc_10131290
 0001:001302A4       loc_101312A4
 0001:001302B0       awake_17
 0001:001302D3       loc_101312D3
 0001:001302E9       loc_101312E9
 0001:00130319       loc_10131319
 0001:00130330       destroy_19
 0001:00130357       loc_10131357
 0001:0013036F       loc_1013136F
 0001:00130380       print_44
 0001:001303B2       loc_101313B2
 0001:001303D0       applicable0_9
 0001:001303F2       loc_101313F2
 0001:00130407       loc_10131407
 0001:00130422       loc_10131422
 0001:00130436       loc_10131436
 0001:0013043F       loc_1013143F
 0001:00130450       mkplan_36
 0001:001304C9       loc_101314C9
 0001:001304CB       loc_101314CB
 0001:001304E5       loc_101314E5
 0001:001304ED       loc_101314ED
 0001:001304FA       loc_101314FA
 0001:00130502       loc_10131502
 0001:0013050E       loc_1013150E
 0001:00130511       loc_10131511
 0001:0013053A       loc_1013153A
 0001:00130548       loc_10131548
 0001:00130570       loc_10131570
 0001:0013057D       loc_1013157D
 0001:001305D7       loc_101315D7
 0001:001305DD       loc_101315DD
 0001:001305EA       loc_101315EA
 0001:00130616       loc_10131616
 0001:0013062B       loc_1013162B
 0001:00130634       loc_10131634
 0001:00130684       loc_10131684
 0001:0013068A       loc_1013168A
 0001:00130697       loc_10131697
 0001:001306C3       loc_101316C3
 0001:001306D4       loc_101316D4
 0001:001306EC       loc_101316EC
 0001:00130741       loc_10131741
 0001:001307BA       loc_101317BA
 0001:001308B1       loc_101318B1
 0001:001308C0       mksolver_15
 0001:0013091F       loc_1013191F
 0001:00130940       _fftwf_reodft00e_splitradix_register
 0001:00130960       apply_re01
 0001:001309D2       loc_101319D2
 0001:00130A00       loc_10131A00
 0001:00130A80       loc_10131A80
 0001:00130A9F       loc_10131A9F
 0001:00130AE0       loc_10131AE0
 0001:00130B1B       loc_10131B1B
 0001:00130B33       loc_10131B33
 0001:00130B48       loc_10131B48
 0001:00130B59       loc_10131B59
 0001:00130B60       apply_ro01
 0001:00130BE0       loc_10131BE0
 0001:00130BE3       loc_10131BE3
 0001:00130C20       loc_10131C20
 0001:00130CAF       loc_10131CAF
 0001:00130CCF       loc_10131CCF
 0001:00130D10       loc_10131D10
 0001:00130D4B       loc_10131D4B
 0001:00130D6B       loc_10131D6B
 0001:00130D80       loc_10131D80
 0001:00130D91       loc_10131D91
 0001:00130DA0       apply_re10
 0001:00130E10       loc_10131E10
 0001:00130E41       loc_10131E41
 0001:00130E6C       loc_10131E6C
 0001:00130E84       loc_10131E84
 0001:00130EBB       loc_10131EBB
 0001:00130F20       loc_10131F20
 0001:00130F41       loc_10131F41
 0001:00130F43       loc_10131F43
 0001:00130F58       loc_10131F58
 0001:00130F69       loc_10131F69
 0001:00130F70       apply_ro10
 0001:00130FF0       loc_10131FF0
 0001:00131030       loc_10132030
 0001:0013105F       loc_1013205F
 0001:0013107E       loc_1013207E
 0001:001310D6       loc_101320D6
 0001:0013114D       loc_1013214D
 0001:0013116F       loc_1013216F
 0001:00131171       loc_10132171
 0001:00131186       loc_10132186
 0001:00131197       loc_10132197
 0001:001311A0       awake_18
 0001:001311C3       loc_101321C3
 0001:001311F4       loc_101321F4
 0001:00131210       print_45
 0001:00131240       mkplan_37
 0001:00131292       loc_10132292
 0001:001312F7       loc_101322F7
 0001:001312FD       loc_101322FD
 0001:0013130E       loc_1013230E
 0001:00131338       loc_10132338
 0001:00131349       loc_10132349
 0001:0013136A       $LN8_0
 0001:00131371       $LN7_0
 0001:00131378       $LN6_2
 0001:0013137F       $LN5_0
 0001:00131384       loc_10132384
 0001:001313F3       loc_101323F3
 0001:00131425       loc_10132425
 0001:0013143E       loc_1013243E
 0001:001314C1       loc_101324C1
 0001:001314CC       off_101324CC
 0001:001314F0       mksolver_16
 0001:0013154F       loc_1013254F
 0001:00131570       _fftwf_reodft010e_r2hc_register
 0001:00131590       apply_re11
 0001:00131601       loc_10132601
 0001:00131636       loc_10132636
 0001:00131660       loc_10132660
 0001:00131675       loc_10132675
 0001:001316A5       loc_101326A5
 0001:001316C0       loc_101326C0
 0001:001316F0       loc_101326F0
 0001:0013170C       loc_1013270C
 0001:00131748       loc_10132748
 0001:0013175C       loc_1013275C
 0001:001317D4       loc_101327D4
 0001:00131818       loc_10132818
 0001:00131830       loc_10132830
 0001:00131840       loc_10132840
 0001:001318CD       loc_101328CD
 0001:00131908       loc_10132908
 0001:00131917       loc_10132917
 0001:0013191C       loc_1013291C
 0001:00131930       loc_10132930
 0001:0013193F       loc_1013293F
 0001:00131944       loc_10132944
 0001:00131965       loc_10132965
 0001:0013196A       loc_1013296A
 0001:00131986       loc_10132986
 0001:0013198B       loc_1013298B
 0001:001319AF       loc_101329AF
 0001:001319BE       loc_101329BE
 0001:001319C3       loc_101329C3
 0001:001319D7       loc_101329D7
 0001:001319E6       loc_101329E6
 0001:001319EB       loc_101329EB
 0001:00131A09       loc_10132A09
 0001:00131A0E       loc_10132A0E
 0001:00131A28       loc_10132A28
 0001:00131A2D       loc_10132A2D
 0001:00131A7B       loc_10132A7B
 0001:00131A89       loc_10132A89
 0001:00131ABB       loc_10132ABB
 0001:00131ACA       loc_10132ACA
 0001:00131ACF       loc_10132ACF
 0001:00131AE3       loc_10132AE3
 0001:00131AF2       loc_10132AF2
 0001:00131AF7       loc_10132AF7
 0001:00131B29       loc_10132B29
 0001:00131B2E       loc_10132B2E
 0001:00131B3A       loc_10132B3A
 0001:00131B5F       loc_10132B5F
 0001:00131B62       loc_10132B62
 0001:00131B74       loc_10132B74
 0001:00131B7B       loc_10132B7B
 0001:00131BA1       loc_10132BA1
 0001:00131BB5       loc_10132BB5
 0001:00131BC0       apply_ro11
 0001:00131C33       loc_10132C33
 0001:00131C68       loc_10132C68
 0001:00131CA0       loc_10132CA0
 0001:00131CB1       loc_10132CB1
 0001:00131CE0       loc_10132CE0
 0001:00131CF8       loc_10132CF8
 0001:00131D30       loc_10132D30
 0001:00131D48       loc_10132D48
 0001:00131D80       loc_10132D80
 0001:00131D91       loc_10132D91
 0001:00131E20       loc_10132E20
 0001:00131E60       loc_10132E60
 0001:00131E80       loc_10132E80
 0001:00131E8F       loc_10132E8F
 0001:00131F15       loc_10132F15
 0001:00131F52       loc_10132F52
 0001:00131F61       loc_10132F61
 0001:00131F66       loc_10132F66
 0001:00131F7B       loc_10132F7B
 0001:00131F8A       loc_10132F8A
 0001:00131F8F       loc_10132F8F
 0001:00131FB2       loc_10132FB2
 0001:00131FB7       loc_10132FB7
 0001:00131FD5       loc_10132FD5
 0001:00131FDA       loc_10132FDA
 0001:00132006       loc_10133006
 0001:00132015       loc_10133015
 0001:0013201A       loc_1013301A
 0001:0013202E       loc_1013302E
 0001:0013203D       loc_1013303D
 0001:00132042       loc_10133042
 0001:00132067       loc_10133067
 0001:0013206C       loc_1013306C
 0001:00132089       loc_10133089
 0001:0013208E       loc_1013308E
 0001:001320CD       loc_101330CD
 0001:001320DB       loc_101330DB
 0001:0013210E       loc_1013310E
 0001:0013211D       loc_1013311D
 0001:00132122       loc_10133122
 0001:00132137       loc_10133137
 0001:00132146       loc_10133146
 0001:0013214B       loc_1013314B
 0001:0013217B       loc_1013317B
 0001:00132180       loc_10133180
 0001:0013218C       loc_1013318C
 0001:001321B3       loc_101331B3
 0001:001321B6       loc_101331B6
 0001:001321C3       loc_101331C3
 0001:001321E9       loc_101331E9
 0001:001321FD       loc_101331FD
 0001:00132210       print_46
 0001:00132240       mkplan_38
 0001:0013227C       loc_1013327C
 0001:0013228E       loc_1013328E
 0001:00132297       loc_10133297
 0001:001322F1       loc_101332F1
 0001:00132306       loc_10133306
 0001:00132332       loc_10133332
 0001:00132343       loc_10133343
 0001:00132364       loc_10133364
 0001:001323B9       loc_101333B9
 0001:0013241D       loc_1013341D
 0001:00132428       loc_10133428
 0001:00132435       loc_10133435
 0001:001324D0       mksolver_17
 0001:0013252F       loc_1013352F
 0001:00132550       _fftwf_reodft11e_r2hc_odd_register
 0001:00132570       apply_re11_2
 0001:001325E4       loc_101335E4
 0001:001325E7       loc_101335E7
 0001:00132661       loc_10133661
 0001:001326C3       loc_101336C3
 0001:001326E7       loc_101336E7
 0001:00132707       loc_10133707
 0001:0013271D       loc_1013371D
 0001:00132786       loc_10133786
 0001:0013279E       loc_1013379E
 0001:001327A0       loc_101337A0
 0001:001327F0       loc_101337F0
 0001:001327F3       loc_101337F3
 0001:00132843       loc_10133843
 0001:00132865       loc_10133865
 0001:0013287A       loc_1013387A
 0001:0013288B       loc_1013388B
 0001:001328A0       apply_ro11_2
 0001:00132910       loc_10133910
 0001:0013298C       loc_1013398C
 0001:001329F0       loc_101339F0
 0001:00132A06       loc_10133A06
 0001:00132A2D       loc_10133A2D
 0001:00132A43       loc_10133A43
 0001:00132AAC       loc_10133AAC
 0001:00132AC4       loc_10133AC4
 0001:00132AC6       loc_10133AC6
 0001:00132B13       loc_10133B13
 0001:00132B16       loc_10133B16
 0001:00132B66       loc_10133B66
 0001:00132B8A       loc_10133B8A
 0001:00132B9F       loc_10133B9F
 0001:00132BB0       loc_10133BB0
 0001:00132BC0       awake_19
 0001:00132BE3       loc_10133BE3
 0001:00132C10       loc_10133C10
 0001:00132C19       loc_10133C19
 0001:00132C45       loc_10133C45
 0001:00132C60       print_47
 0001:00132C90       mkplan_39
 0001:00132CC8       loc_10133CC8
 0001:00132CD1       loc_10133CD1
 0001:00132D36       loc_10133D36
 0001:00132D3C       loc_10133D3C
 0001:00132D4D       loc_10133D4D
 0001:00132D71       loc_10133D71
 0001:00132D82       loc_10133D82
 0001:00132DA3       loc_10133DA3
 0001:00132DF8       loc_10133DF8
 0001:00132E61       loc_10133E61
 0001:00132E6C       loc_10133E6C
 0001:00132E79       loc_10133E79
 0001:00132E93       loc_10133E93
 0001:00132F50       apply_re11_0
 0001:00132FF0       loc_10133FF0
 0001:00132FF3       loc_10133FF3
 0001:00133037       loc_10134037
 0001:00133153       loc_10134153
 0001:001331AA       loc_101341AA
 0001:001331AC       loc_101341AC
 0001:00133240       loc_10134240
 0001:00133358       loc_10134358
 0001:001333C0       loc_101343C0
 0001:001333D5       loc_101343D5
 0001:001333E6       loc_101343E6
 0001:001333F0       apply_ro11_0
 0001:00133490       loc_10134490
 0001:00133493       loc_10134493
 0001:001334D7       loc_101344D7
 0001:001335F5       loc_101345F5
 0001:0013364C       loc_1013464C
 0001:0013364E       loc_1013464E
 0001:001336E0       loc_101346E0
 0001:001337F6       loc_101347F6
 0001:0013385E       loc_1013485E
 0001:00133873       loc_10134873
 0001:00133884       loc_10134884
 0001:00133890       awake_20
 0001:001338B3       loc_101348B3
 0001:001338E0       loc_101348E0
 0001:001338E9       loc_101348E9
 0001:00133912       loc_10134912
 0001:00133930       print_48
 0001:00133960       mkplan_40
 0001:001339A0       loc_101349A0
 0001:001339AF       loc_101349AF
 0001:001339B8       loc_101349B8
 0001:00133A24       loc_10134A24
 0001:00133A39       loc_10134A39
 0001:00133A65       loc_10134A65
 0001:00133A76       loc_10134A76
 0001:00133A97       loc_10134A97
 0001:00133AEC       loc_10134AEC
 0001:00133B5A       loc_10134B5A
 0001:00133B65       loc_10134B65
 0001:00133B72       loc_10134B72
 0001:00133BBC       loc_10134BBC
 0001:00133BD4       loc_10134BD4
 0001:00133C60       mksolver_18
 0001:00133CBF       loc_10134CBF
 0001:00133CE0       _fftwf_reodft11e_radix2_r2hc_register
 0001:00133D00       apply_19
 0001:00133D70       loc_10134D70
 0001:00133DE0       loc_10134DE0
 0001:00133E58       loc_10134E58
 0001:00133E72       loc_10134E72
 0001:00133E99       loc_10134E99
 0001:00133ED2       loc_10134ED2
 0001:00133EE3       loc_10134EE3
 0001:00133EF0       print_49
 0001:00133F20       mkplan_41
 0001:00133FBA       loc_10134FBA
 0001:00133FCF       loc_10134FCF
 0001:00133FFB       loc_10134FFB
 0001:00134027       loc_10135027
 0001:00134039       loc_10135039
 0001:0013404F       loc_1013504F
 0001:0013405C       loc_1013505C
 0001:001340AB       loc_101350AB
 0001:001340C0       loc_101350C0
 0001:001340E8       loc_101350E8
 0001:001340F0       nada_14
 0001:00134101       loc_10135101
 0001:0013411A       loc_1013511A
 0001:00134123       loc_10135123
 0001:00134134       loc_10135134
 0001:00134189       loc_10135189
 0001:00134299       loc_10135299
 0001:001342B0       mksolver_19
 0001:0013430F       loc_1013530F
 0001:00134330       _fftwf_rodft00e_r2hc_pad_register
 0001:00134350       apply_20
 0001:001343C2       loc_101353C2
 0001:00134416       loc_10135416
 0001:00134419       loc_10135419
 0001:00134495       loc_10135495
 0001:001344B5       loc_101354B5
 0001:001344F3       loc_101354F3
 0001:00134536       loc_10135536
 0001:00134555       loc_10135555
 0001:0013456A       loc_1013556A
 0001:0013457B       loc_1013557B
 0001:00134590       awake_21
 0001:001345B3       loc_101355B3
 0001:001345E0       loc_101355E0
 0001:001345F0       print_50
 0001:00134620       mkplan_42
 0001:00134651       loc_10135651
 0001:0013465A       loc_1013565A
 0001:001346B6       loc_101356B6
 0001:001346CB       loc_101356CB
 0001:001346F7       loc_101356F7
 0001:00134708       loc_10135708
 0001:00134763       loc_10135763
 0001:001347C7       loc_101357C7
 0001:001347D2       loc_101357D2
 0001:001347DF       loc_101357DF
 0001:00134824       loc_10135824
 0001:0013482C       loc_1013582C
 0001:001348B0       _fftwf_check_alignment_of_sse2_pm
 0001:001348C0       loc_101358C0
 0001:001348FD       locret_101358FD
 0001:00134900       sighandler
 0001:0013490D       $LN4_1
 0001:00134910       sse2_works
 0001:0013494C       loc_1013594C
 0001:00134970       _fftwf_have_simd_sse2
 0001:001349E2       loc_101359E2
 0001:001349EC       loc_101359EC
 0001:001349FB       loc_101359FB
 0001:00134A10       _fftwf_init_threads
 0001:00134A56       loc_10135A56
 0001:00134A70       loc_10135A70
 0001:00134A8F       loc_10135A8F
 0001:00134AA6       loc_10135AA6
 0001:00134AB0       _fftwf_cleanup_threads
 0001:00134AC6       loc_10135AC6
 0001:00134AE0       loc_10135AE0
 0001:00134AF0       _fftwf_plan_with_nthreads
 0001:00134B14       loc_10135B14
 0001:00134B19       loc_10135B19
 0001:00134B38       loc_10135B38
 0001:00134B45       loc_10135B45
 0001:00134B50       spawn_apply
 0001:00134B80       apply_dit_2
 0001:00134BD0       apply_dif_3
 0001:00134C30       destroy_20
 0001:00134C54       loc_10135C54
 0001:00134C60       loc_10135C60
 0001:00134C7F       loc_10135C7F
 0001:00134C85       loc_10135C85
 0001:00134C9A       loc_10135C9A
 0001:00134CA0       print_51
 0001:00134CBC       loc_10135CBC
 0001:00134CE0       loc_10135CE0
 0001:00134D03       loc_10135D03
 0001:00134D17       loc_10135D17
 0001:00134D1D       loc_10135D1D
 0001:00134D40       mkplan_43
 0001:00134D9F       loc_10135D9F
 0001:00134DB2       loc_10135DB2
 0001:00134DD0       loc_10135DD0
 0001:00134DD5       loc_10135DD5
 0001:00134DFC       loc_10135DFC
 0001:00134E0B       loc_10135E0B
 0001:00134E6A       loc_10135E6A
 0001:00134E85       loc_10135E85
 0001:00134EFF       loc_10135EFF
 0001:00134F24       loc_10135F24
 0001:00134F27       loc_10135F27
 0001:00134F31       loc_10135F31
 0001:00134F37       loc_10135F37
 0001:00134F99       loc_10135F99
 0001:00135047       loc_10136047
 0001:00135067       loc_10136067
 0001:001350C1       loc_101360C1
 0001:001350E9       loc_101360E9
 0001:001350F4       loc_101360F4
 0001:001350FD       loc_101360FD
 0001:00135120       loc_10136120
 0001:00135123       loc_10136123
 0001:00135130       loc_10136130
 0001:00135136       loc_10136136
 0001:00135191       loc_10136191
 0001:00135236       loc_10136236
 0001:00135256       loc_10136256
 0001:00135263       loc_10136263
 0001:00135268       loc_10136268
 0001:0013526B       loc_1013626B
 0001:00135271       nada_15
 0001:00135280       loc_10136280
 0001:0013529E       loc_1013629E
 0001:001352A3       loc_101362A3
 0001:001352AC       loc_101362AC
 0001:001352C4       loc_101362C4
 0001:001352CD       loc_101362CD
 0001:00135322       loc_10136322
 0001:00135343       loc_10136343
 0001:00135349       loc_10136349
 0001:00135386       loc_10136386
 0001:00135447       loc_10136447
 0001:00135450       loc_10136450
 0001:00135488       loc_10136488
 0001:001354B5       loc_101364B5
 0001:001354D0       _fftwf_mksolver_ct_threads
 0001:00135510       spawn_apply_3
 0001:00135560       apply_21
 0001:001355C0       destroy_21
 0001:001355D0       loc_101365D0
 0001:001355EF       loc_101365EF
 0001:001355F6       loc_101365F6
 0001:0013560A       loc_1013660A
 0001:00135610       print_52
 0001:00135640       loc_10136640
 0001:00135663       loc_10136663
 0001:00135677       loc_10136677
 0001:0013567D       loc_1013667D
 0001:00135690       applicable_17
 0001:001356E1       loc_101366E1
 0001:001356E9       loc_101366E9
 0001:001356FC       loc_101366FC
 0001:00135710       mkplan_44
 0001:0013573A       loc_1013673A
 0001:001357B3       loc_101367B3
 0001:001357E0       loc_101367E0
 0001:001357FB       loc_101367FB
 0001:00135813       loc_10136813
 0001:00135816       loc_10136816
 0001:00135828       loc_10136828
 0001:0013582B       loc_1013682B
 0001:0013587D       loc_1013687D
 0001:001358B7       loc_101368B7
 0001:001358C8       loc_101368C8
 0001:0013591B       loc_1013691B
 0001:00135982       loc_10136982
 0001:00135A4C       loc_10136A4C
 0001:00135A50       loc_10136A50
 0001:00135A88       loc_10136A88
 0001:00135A91       nada_16
 0001:00135A97       loc_10136A97
 0001:00135AB6       loc_10136AB6
 0001:00135AC8       loc_10136AC8
 0001:00135ADC       loc_10136ADC
 0001:00135AE5       loc_10136AE5
 0001:00135B00       _fftwf_dft_thr_vrank_geq1_register
 0001:00135B10       loc_10136B10
 0001:00135B6A       loc_10136B6A
 0001:00135BAC       loc_10136BAC
 0001:00135BC0       spawn_apply_0
 0001:00135BF0       apply_dit_3
 0001:00135C40       apply_dif_4
 0001:00135C90       awake_22
 0001:00135CB2       loc_10136CB2
 0001:00135CC0       loc_10136CC0
 0001:00135CDF       loc_10136CDF
 0001:00135CE5       loc_10136CE5
 0001:00135CF0       print_53
 0001:00135D0C       loc_10136D0C
 0001:00135D30       loc_10136D30
 0001:00135D53       loc_10136D53
 0001:00135D67       loc_10136D67
 0001:00135D6D       loc_10136D6D
 0001:00135D90       mkplan_45
 0001:00135E03       loc_10136E03
 0001:00135E3C       loc_10136E3C
 0001:00135E53       loc_10136E53
 0001:00135E60       loc_10136E60
 0001:00135E78       loc_10136E78
 0001:00135E7A       loc_10136E7A
 0001:00135EAA       loc_10136EAA
 0001:00135EB6       loc_10136EB6
 0001:00135F10       loc_10136F10
 0001:00135F47       loc_10136F47
 0001:00135F52       loc_10136F52
 0001:00135FA1       loc_10136FA1
 0001:00136044       loc_10137044
 0001:00136067       loc_10137067
 0001:001360C1       loc_101370C1
 0001:001360EE       loc_101370EE
 0001:001360F9       loc_101370F9
 0001:00136116       loc_10137116
 0001:00136121       loc_10137121
 0001:00136170       loc_10137170
 0001:00136213       loc_10137213
 0001:00136236       loc_10137236
 0001:0013623D       nada_17
 0001:00136250       loc_10137250
 0001:0013626F       loc_1013726F
 0001:00136274       loc_10137274
 0001:00136284       loc_10137284
 0001:001362A0       loc_101372A0
 0001:001362A9       loc_101372A9
 0001:00136300       loc_10137300
 0001:00136324       loc_10137324
 0001:00136327       loc_10137327
 0001:00136361       loc_10137361
 0001:00136422       loc_10137422
 0001:00136426       loc_10137426
 0001:0013645E       loc_1013745E
 0001:0013648B       loc_1013748B
 0001:001364A0       _fftwf_mksolver_hc2hc_threads
 0001:001364D0       _fftwf_spawn_loop
 0001:00136503       loc_10137503
 0001:00136510       spawn_apply_1
 0001:00136550       apply_22
 0001:001365A0       awake_23
 0001:001365B0       loc_101375B0
 0001:001365CF       loc_101375CF
 0001:001365D6       loc_101375D6
 0001:001365E0       print_54
 0001:00136610       loc_10137610
 0001:00136633       loc_10137633
 0001:00136647       loc_10137647
 0001:0013664D       loc_1013764D
 0001:00136660       applicable_18
 0001:001366B1       loc_101376B1
 0001:001366B9       loc_101376B9
 0001:001366CC       loc_101376CC
 0001:001366E0       mkplan_46
 0001:0013670A       loc_1013770A
 0001:00136783       loc_10137783
 0001:001367B0       loc_101377B0
 0001:001367CB       loc_101377CB
 0001:00136800       loc_10137800
 0001:00136812       loc_10137812
 0001:00136815       loc_10137815
 0001:0013685E       loc_1013785E
 0001:00136890       loc_10137890
 0001:001368A1       loc_101378A1
 0001:001368F4       loc_101378F4
 0001:00136960       loc_10137960
 0001:00136A2A       loc_10137A2A
 0001:00136A30       loc_10137A30
 0001:00136A68       loc_10137A68
 0001:00136A71       nada_18
 0001:00136A77       loc_10137A77
 0001:00136A96       loc_10137A96
 0001:00136AA8       loc_10137AA8
 0001:00136ABC       loc_10137ABC
 0001:00136AC5       loc_10137AC5
 0001:00136AE0       _fftwf_rdft_thr_vrank_geq1_register
 0001:00136AF0       loc_10137AF0
 0001:00136B4A       loc_10137B4A
 0001:00136B8C       loc_10137B8C
 0001:00136BA0       print_55
 0001:00136BD0       loc_10137BD0
 0001:00136BF3       loc_10137BF3
 0001:00136C07       loc_10137C07
 0001:00136C0D       loc_10137C0D
 0001:00136C20       applicable0_10
 0001:00136C7A       loc_10137C7A
 0001:00136C8D       loc_10137C8D
 0001:00136CA0       mkplan_47
 0001:00136CE3       loc_10137CE3
 0001:00136D3A       loc_10137D3A
 0001:00136D40       loc_10137D40
 0001:00136D6B       loc_10137D6B
 0001:00136D96       loc_10137D96
 0001:00136DB1       loc_10137DB1
 0001:00136DD0       loc_10137DD0
 0001:00136DD3       loc_10137DD3
 0001:00136DE5       loc_10137DE5
 0001:00136DE8       loc_10137DE8
 0001:00136E3E       loc_10137E3E
 0001:00136E78       loc_10137E78
 0001:00136E89       loc_10137E89
 0001:00136EDC       loc_10137EDC
 0001:00136F43       loc_10137F43
 0001:0013700D       loc_1013800D
 0001:00137011       loc_10138011
 0001:00137049       loc_10138049
 0001:00137052       nada_19
 0001:00137058       loc_10138058
 0001:00137077       loc_10138077
 0001:00137089       loc_10138089
 0001:0013709D       loc_1013809D
 0001:001370A6       loc_101380A6
 0001:001370C0       _fftwf_rdft2_thr_vrank_geq1_register
 0001:001370D0       loc_101380D0
 0001:0013712A       loc_1013812A
 0001:0013716C       loc_1013816C
 0001:00137177       __security_check_cookie(x)
 0001:00137181       failure
 0001:00137186       pre_c_init
 0001:001371B1       loc_101381B1
 0001:001371D4       _CRT_INIT(x,x,x)
 0001:00137210       loc_10138210
 0001:00137217       loc_10138217
 0001:0013723C       loc_1013823C
 0001:0013724D       loc_1013824D
 0001:00137257       loc_10138257
 0001:0013725E       loc_1013825E
 0001:00137273       loc_10138273
 0001:001372AC       loc_101382AC
 0001:001372BC       loc_101382BC
 0001:001372E0       loc_101382E0
 0001:001372EB       loc_101382EB
 0001:001372FA       loc_101382FA
 0001:00137306       loc_10138306
 0001:0013730D       loc_1013830D
 0001:00137324       loc_10138324
 0001:00137350       loc_10138350
 0001:00137399       loc_10138399
 0001:001373A6       loc_101383A6
 0001:001373C0       loc_101383C0
 0001:001373D4       loc_101383D4
 0001:001373D7       loc_101383D7
 0001:001373DE       __DllMainCRTStartup
 0001:00137419       loc_10138419
 0001:00137422       loc_10138422
 0001:00137433       loc_10138433
 0001:00137450       loc_10138450
 0001:00137484       loc_10138484
 0001:0013748D       loc_1013848D
 0001:0013749C       loc_1013849C
 0001:001374B5       $LN22
 0001:001374C8       $LN29_1
 0001:001374C9       $LN23_1
 0001:001374D0       loc_101384D0
 0001:001374E0       $LN21_1
 0001:001374E9       $LN18
 0001:001374F3       $LN19
 0001:001374F4       _DllMainCRTStartup(x,x,x)
 0001:00137504       loc_10138504
 0001:00137517       ___report_gsfailure
 0001:00137609       loc_10138609
 0001:0013761D       ___clean_type_info_names
 0001:00137629       __onexit
 0001:00137657       loc_10138657
 0001:001376B8       $LN9_0
 0001:001376BB       loc_101386BB
 0001:001376C1       $LN6_0
 0001:001376C9       $LN7_1
 0001:001376CA       _atexit
 0001:001376E1       __RTC_Initialize
 0001:001376F5       loc_101386F5
 0001:001376FD       loc_101386FD
 0001:00137704       loc_10138704
 0001:00137707       __RTC_Terminate
 0001:0013771B       loc_1013871B
 0001:00137723       loc_10138723
 0001:0013772A       loc_1013872A
 0001:00137730       __ValidateImageBase
 0001:00137742       loc_10138742
 0001:00137746       loc_10138746
 0001:00137770       __FindPESection
 0001:00137795       loc_10138795
 0001:001377A5       loc_101387A5
 0001:001377AD       loc_101387AD
 0001:001377AF       loc_101387AF
 0001:001377C0       __IsNonwritableInCurrentImage
 0001:0013784B       $LN7_2
 0001:0013785D       $LN11_2
 0001:0013785E       $LN8_1
 0001:00137861       loc_10138861
 0001:0013787C       __initterm
 0001:00137882       __initterm_e
 0001:00137888       __amsg_exit
 0001:0013788E       ___CppXcptFilter
 0001:00137894       DllMain(x,x,x)
 0001:001378B1       loc_101388B1
 0001:001378C0       __SEH_prolog4
 0001:00137905       __SEH_epilog4
 0001:00137919       __except_handler4
 0001:0013793E       ___security_init_cookie
 0001:00137970       loc_10138970
 0001:001379B6       loc_101389B6
 0001:001379C6       loc_101389C6
 0001:001379D5       loc_101389D5
 0001:001379DA       __crt_debugger_hook
 0001:001379E0       ___clean_type_info_names_internal
 0001:001379E6       __unlock
 0001:001379EC       ___dllonexit
 0001:001379F2       __lock
 0001:001379F8       __except_handler4_common
 0001:00137A00       fftwf_spawn_loop$omp$1
 0001:00137A43       loc_10138A43
 0001:00137A46       loc_10138A46
 0001:00137A56       loc_10138A56
 0001:00137A76       loc_10138A76
 0001:00137A7C       loc_10138A7C
 0001:00137A80       _memcpy
 0001:00137A86       __CIsin
 0001:00137A8C       __CIcos
 0001:00137AA0       __ftol2_sse
 0001:00137AA9       __ftol2_pentium4
 0001:00137ABC       __ftol2_sse_excpt
 0001:00137AD6       __ftol2
 0001:00137AF9       arg_is_not_integer_QnaN
 0001:00137B1D       positive
 0001:00137B35       integer_QnaN_or_zero
 0001:00137B49       localexit
 0001:00137B4C       __CIlog
 0001:00137B52       __setjmp3
 0001:00137B58       _memset
 0001:00137B60       __chkstk
 0001:00137B74       cs10
 0001:00137B82       cs20
 0001:00137B8B       ___sse2_available_init
 0001:00137BA0       __vcomp_for_static_end
 0001:00137BA6       __vcomp_for_static_simple_init
 0001:00137BAC       __vcomp_fork
 0002:000000E8       ___xc_a
 0002:000000EC       ___xc_z
 0002:000000F0       ___xi_a
 0002:000000F4       pcinit
 0002:000000F8       pinit
 0002:000000FC       ___xi_z
 0002:0000011C       __pRawDllMain
 0002:00000120       GS_ExceptionPointers
 0002:00000128       aW
 0002:0000012C       aR
 0002:00000130       padt
 0002:00000140       unk_10139140
 0002:0000014C       buddies
 0002:00000154       padt_59
 0002:00000164       unk_10139164
 0002:00000170       buddies_8
 0002:00000178       padt_0
 0002:00000188       sadt
 0002:00000194       padt_1
 0002:000001A4       unk_101391A4
 0002:000001B0       buddies_0
 0002:000001B8       padt_2
 0002:000001C8       sadt_29
 0002:000001D4       s
 0002:000001F4       rodft00e_tw
 0002:000001FC       SQRT2
 0002:00000200       _fftwf_sse2_pm
 0002:00000210       padt_3
 0002:00000220       sadt_0
 0002:0000022C       padt_4
 0002:0000023C       sadt_1
 0002:00000248       reodft010e_tw
 0002:00000254       reodft11e_tw
 0002:00000260       padt_5
 0002:00000270       sadt_2
 0002:0000027C       reodft010e_tw_2
 0002:00000288       reodft11e_tw_1
 0002:00000290       padt_6
 0002:000002A0       sadt_3
 0002:000002AC       padt_7
 0002:000002BC       sadt_4
 0002:000002C8       reodft010e_tw_0
 0002:000002D4       padt_8
 0002:000002E4       sadt_5
 0002:000002F0       reodft00e_tw
 0002:000002FC       padt_9
 0002:0000030C       sadt_6
 0002:00000318       redft00e_tw
 0002:00000324       padt_10
 0002:00000334       sadt_7
 0002:00000340       padt_11
 0002:00000350       sadt_8
 0002:0000035C       s_3
 0002:00000394       twinstr
 0002:000003D0       desc
 0002:00000400       twinstr_0
 0002:0000042C       twinstr_1
 0002:00000448       desc_0
 0002:00000478       desc_1
 0002:000004A8       twinstr_2
 0002:000005A4       twinstr_3
 0002:000005B0       desc_2
 0002:000005E0       twinstr_4
 0002:0000067C       twinstr_5
 0002:000006B8       desc_3
 0002:000006E8       desc_4
 0002:00000718       twinstr_6
 0002:00000794       twinstr_7
 0002:000007C0       desc_5
 0002:000007F0       twinstr_8
 0002:0000084C       twinstr_9
 0002:00000868       desc_6
 0002:00000898       twinstr_10
 0002:000008E4       twinstr_11
 0002:000008F0       desc_7
 0002:00000920       desc_8
 0002:00000950       desc_9
 0002:00000980       desc_10
 0002:000009B0       twinstr_12
 0002:00000AAC       _fftwf_rdft_hc2cbv_genus_sse2
 0002:00000AB8       desc_11
 0002:00000AE8       twinstr_13
 0002:00000B84       _fftwf_rdft_hc2cfv_genus_sse2
 0002:00000B90       desc_12
 0002:00000BC0       desc_13
 0002:00000BF0       twinstr_14
 0002:00000C6C       twinstr_15
 0002:00000C78       desc_14
 0002:00000CA8       twinstr_16
 0002:00000D04       twinstr_17
 0002:00000D10       desc_15
 0002:00000D40       twinstr_18
 0002:00000D8C       twinstr_19
 0002:00000DA0       desc_16
 0002:00000DD0       _fftwf_solvtab_rdft_sse2
 0002:00000DD4       off_10139DD4
 0002:00000E68       desc_17
 0002:00000E98       desc_18
 0002:00000EC8       _fftwf_solvtab_rdft_r2r
 0002:00000ECC       off_10139ECC
 0002:00000EE0       desc_19
 0002:00000F10       desc_20
 0002:00000F40       desc_21
 0002:00000F70       desc_22
 0002:00000FA0       desc_23
 0002:00000FD0       desc_24
 0002:00001000       desc_25
 0002:00001030       desc_26
 0002:00001060       desc_27
 0002:00001090       desc_28
 0002:000010C0       desc_29
 0002:000010F0       desc_30
 0002:00001120       desc_31
 0002:00001150       desc_32
 0002:00001180       desc_33
 0002:000011B0       desc_34
 0002:000011E0       desc_35
 0002:00001210       desc_36
 0002:00001240       desc_37
 0002:00001270       desc_38
 0002:000012A0       desc_39
 0002:000012D0       desc_40
 0002:00001300       desc_41
 0002:00001330       desc_42
 0002:00001360       desc_43
 0002:00001390       desc_44
 0002:000013C0       desc_45
 0002:000013F0       desc_46
 0002:00001420       desc_47
 0002:00001450       desc_48
 0002:00001480       desc_49
 0002:000014B0       desc_50
 0002:000014E0       desc_51
 0002:00001510       desc_52
 0002:00001540       desc_53
 0002:00001570       desc_54
 0002:000015A0       twinstr_20
 0002:000015A8       desc_55
 0002:000015D8       twinstr_21
 0002:000015E0       desc_56
 0002:00001610       twinstr_22
 0002:00001618       desc_57
 0002:00001648       twinstr_23
 0002:00001650       desc_58
 0002:00001680       twinstr_24
 0002:00001688       desc_59
 0002:000016B8       twinstr_25
 0002:000016C0       desc_60
 0002:000016F0       twinstr_26
 0002:000016F8       desc_61
 0002:00001728       twinstr_27
 0002:00001730       desc_62
 0002:00001760       twinstr_28
 0002:00001768       desc_63
 0002:00001798       twinstr_29
 0002:000017A0       desc_64
 0002:000017D0       twinstr_30
 0002:000017D8       desc_65
 0002:00001808       twinstr_31
 0002:00001810       desc_66
 0002:00001840       twinstr_32
 0002:00001848       desc_67
 0002:00001878       twinstr_33
 0002:00001880       desc_68
 0002:000018B0       twinstr_34
 0002:000018B8       desc_69
 0002:000018E8       twinstr_35
 0002:000018F0       desc_70
 0002:00001920       twinstr_36
 0002:00001930       desc_71
 0002:00001960       desc_72
 0002:00001990       desc_73
 0002:000019C0       desc_74
 0002:000019F0       twinstr_37
 0002:00001A04       twinstr_38
 0002:00001A18       desc_75
 0002:00001A48       desc_76
 0002:00001A78       twinstr_39
 0002:00001A8C       twinstr_40
 0002:00001A98       desc_77
 0002:00001AC8       twinstr_41
 0002:00001AD0       desc_78
 0002:00001B00       twinstr_42
 0002:00001B08       desc_79
 0002:00001B38       twinstr_43
 0002:00001B40       desc_80
 0002:00001B70       twinstr_44
 0002:00001B78       desc_81
 0002:00001BA8       twinstr_45
 0002:00001BB0       desc_82
 0002:00001BE0       twinstr_46
 0002:00001BE8       desc_83
 0002:00001C18       twinstr_47
 0002:00001C20       desc_84
 0002:00001C50       twinstr_48
 0002:00001C58       desc_85
 0002:00001C88       twinstr_49
 0002:00001C90       desc_86
 0002:00001CC0       twinstr_50
 0002:00001CC8       desc_87
 0002:00001CF8       twinstr_51
 0002:00001D00       desc_88
 0002:00001D30       twinstr_52
 0002:00001D38       desc_89
 0002:00001D68       twinstr_53
 0002:00001D70       desc_90
 0002:00001DA0       twinstr_54
 0002:00001DA8       desc_91
 0002:00001DD8       twinstr_55
 0002:00001DE0       desc_92
 0002:00001E10       twinstr_56
 0002:00001E18       desc_93
 0002:00001E48       twinstr_57
 0002:00001E50       desc_94
 0002:00001E80       twinstr_58
 0002:00001E88       desc_95
 0002:00001EB8       twinstr_59
 0002:00001EC8       desc_96
 0002:00001EF8       desc_97
 0002:00001F28       twinstr_60
 0002:00001F3C       twinstr_61
 0002:00001F50       desc_98
 0002:00001F80       stru_1013AF80
 0002:00001FB0       twinstr_62
 0002:00001FC4       twinstr_63
 0002:00001FD0       stru_1013AFD0
 0002:00002000       twinstr_64
 0002:00002010       stru_1013B010
 0002:00002040       stru_1013B040
 0002:00002070       twinstr_65
 0002:00002084       twinstr_66
 0002:00002098       stru_1013B098
 0002:000020C8       stru_1013B0C8
 0002:000020F8       twinstr_67
 0002:0000210C       twinstr_68
 0002:00002118       stru_1013B118
 0002:00002148       _fftwf_solvtab_rdft_r2cf
 0002:0000214C       off_1013B14C
 0002:00002408       stru_1013B408
 0002:00002438       stru_1013B438
 0002:00002468       stru_1013B468
 0002:00002498       stru_1013B498
 0002:000024C8       stru_1013B4C8
 0002:000024F8       stru_1013B4F8
 0002:00002528       stru_1013B528
 0002:00002558       stru_1013B558
 0002:00002588       stru_1013B588
 0002:000025B8       stru_1013B5B8
 0002:000025E8       stru_1013B5E8
 0002:00002618       stru_1013B618
 0002:00002648       stru_1013B648
 0002:00002678       stru_1013B678
 0002:000026A8       stru_1013B6A8
 0002:000026D8       stru_1013B6D8
 0002:00002708       stru_1013B708
 0002:00002738       stru_1013B738
 0002:00002768       stru_1013B768
 0002:00002798       stru_1013B798
 0002:000027C8       stru_1013B7C8
 0002:000027F8       stru_1013B7F8
 0002:00002828       stru_1013B828
 0002:00002858       stru_1013B858
 0002:00002888       stru_1013B888
 0002:000028B8       stru_1013B8B8
 0002:000028E8       stru_1013B8E8
 0002:00002918       stru_1013B918
 0002:00002948       stru_1013B948
 0002:00002978       stru_1013B978
 0002:000029A8       stru_1013B9A8
 0002:000029D8       stru_1013B9D8
 0002:00002A08       stru_1013BA08
 0002:00002A38       stru_1013BA38
 0002:00002A68       stru_1013BA68
 0002:00002A98       stru_1013BA98
 0002:00002AC8       twinstr_69
 0002:00002AD0       stru_1013BAD0
 0002:00002B00       twinstr_70
 0002:00002B08       stru_1013BB08
 0002:00002B38       twinstr_71
 0002:00002B40       stru_1013BB40
 0002:00002B70       twinstr_72
 0002:00002B78       stru_1013BB78
 0002:00002BA8       twinstr_73
 0002:00002BB0       stru_1013BBB0
 0002:00002BE0       twinstr_74
 0002:00002BE8       stru_1013BBE8
 0002:00002C18       twinstr_75
 0002:00002C20       stru_1013BC20
 0002:00002C50       twinstr_76
 0002:00002C58       stru_1013BC58
 0002:00002C88       twinstr_77
 0002:00002C90       stru_1013BC90
 0002:00002CC0       twinstr_78
 0002:00002CC8       stru_1013BCC8
 0002:00002CF8       twinstr_79
 0002:00002D00       stru_1013BD00
 0002:00002D30       twinstr_80
 0002:00002D38       stru_1013BD38
 0002:00002D68       twinstr_81
 0002:00002D70       stru_1013BD70
 0002:00002DA0       twinstr_82
 0002:00002DA8       stru_1013BDA8
 0002:00002DD8       twinstr_83
 0002:00002DE0       stru_1013BDE0
 0002:00002E10       twinstr_84
 0002:00002E18       stru_1013BE18
 0002:00002E48       twinstr_85
 0002:00002E50       stru_1013BE50
 0002:00002E80       twinstr_86
 0002:00002E88       stru_1013BE88
 0002:00002EB8       twinstr_87
 0002:00002EC0       stru_1013BEC0
 0002:00002EF0       twinstr_88
 0002:00002EF8       stru_1013BEF8
 0002:00002F28       twinstr_89
 0002:00002F30       stru_1013BF30
 0002:00002F60       twinstr_90
 0002:00002F68       stru_1013BF68
 0002:00002F98       twinstr_91
 0002:00002FA0       stru_1013BFA0
 0002:00002FD0       twinstr_92
 0002:00002FE0       stru_1013BFE0
 0002:00003010       stru_1013C010
 0002:00003040       twinstr_93
 0002:00003054       twinstr_94
 0002:00003068       stru_1013C068
 0002:00003098       stru_1013C098
 0002:000030C8       twinstr_95
 0002:000030DC       twinstr_96
 0002:000030E8       stru_1013C0E8
 0002:00003118       twinstr_97
 0002:00003120       stru_1013C120
 0002:00003150       twinstr_98
 0002:00003158       stru_1013C158
 0002:00003188       stru_1013C188
 0002:00003190       stru_1013C190
 0002:000031C0       stru_1013C1C0
 0002:000031C8       stru_1013C1C8
 0002:000031F8       stru_1013C1F8
 0002:00003200       stru_1013C200
 0002:00003230       stru_1013C230
 0002:00003238       stru_1013C238
 0002:00003268       stru_1013C268
 0002:00003270       stru_1013C270
 0002:000032A0       stru_1013C2A0
 0002:000032A8       stru_1013C2A8
 0002:000032D8       stru_1013C2D8
 0002:000032E0       stru_1013C2E0
 0002:00003310       stru_1013C310
 0002:00003318       stru_1013C318
 0002:00003348       stru_1013C348
 0002:00003350       stru_1013C350
 0002:00003380       stru_1013C380
 0002:00003388       stru_1013C388
 0002:000033B8       stru_1013C3B8
 0002:000033C0       stru_1013C3C0
 0002:000033F0       stru_1013C3F0
 0002:000033F8       stru_1013C3F8
 0002:00003428       stru_1013C428
 0002:00003430       stru_1013C430
 0002:00003460       stru_1013C460
 0002:00003468       stru_1013C468
 0002:00003498       stru_1013C498
 0002:000034A8       stru_1013C4A8
 0002:000034D8       stru_1013C4D8
 0002:00003508       stru_1013C508
 0002:00003514       stru_1013C514
 0002:00003528       stru_1013C528
 0002:00003558       stru_1013C558
 0002:00003588       stru_1013C588
 0002:0000359C       stru_1013C59C
 0002:000035B0       stru_1013C5B0
 0002:000035E0       stru_1013C5E0
 0002:00003610       stru_1013C610
 0002:00003624       _fftwf_rdft_r2r_genus
 0002:00003628       stru_1013C628
 0002:00003658       _fftwf_solvtab_rdft_r2cb
 0002:0000365C       off_1013C65C
 0002:00003918       _fftwf_rdft_r2cf_genus
 0002:00003920       _fftwf_rdft_r2cfII_genus
 0002:00003928       _fftwf_rdft_r2cb_genus
 0002:00003930       _fftwf_rdft_r2cbIII_genus
 0002:00003938       _fftwf_rdft_hf_genus
 0002:00003940       _fftwf_rdft_hb_genus
 0002:00003948       _fftwf_rdft_hc2cf_genus
 0002:00003954       _fftwf_rdft_hc2cb_genus
 0002:00003960       adt_gcd
 0002:00003970       adt_cut
 0002:00003980       adt_toms513
 0002:00003990       padt_12
 0002:000039A0       unk_1013C9A0
 0002:000039AC       adts
 0002:000039B8       padt_13
 0002:000039C8       unk_1013C9C8
 0002:000039D4       buddies_1
 0002:000039DC       padt_14
 0002:000039EC       unk_1013C9EC
 0002:000039F8       buddies_2
 0002:00003A00       padt_15
 0002:00003A10       sadt_9
 0002:00003A1C       padt_16
 0002:00003A2C       sadt_10
 0002:00003A38       padt_17
 0002:00003A48       sadt_11
 0002:00003A54       padt_18
 0002:00003A64       sadt_12
 0002:00003A70       padt_19
 0002:00003A80       unk_1013CA80
 0002:00003A8C       buddies_3
 0002:00003A98       padt_20
 0002:00003AA8       unk_1013CAA8
 0002:00003AB4       buddies_4
 0002:00003AC0       padt_21
 0002:00003AD4       padt_22
 0002:00003AE8       aR2hc_0
 0002:00003AF0       aR2hc01
 0002:00003AF8       aR2hc10
 0002:00003B00       aR2hc11
 0002:00003B08       aHc2r_0
 0002:00003B10       aHc2r01
 0002:00003B18       aHc2r10
 0002:00003B20       aHc2r11
 0002:00003B28       aDht
 0002:00003B30       aRedft00
 0002:00003B38       aRedft01
 0002:00003B40       aRedft10
 0002:00003B48       aRedft11
 0002:00003B50       aRodft00
 0002:00003B58       aRodft01
 0002:00003B60       aRodft10
 0002:00003B68       aRodft11
 0002:00003B70       padt_23
 0002:00003B80       sadt_13
 0002:00003B8C       padt_24
 0002:00003B9C       sadt_14
 0002:00003BA8       adt_before
 0002:00003BB4       adt_after
 0002:00003BC0       padt_25
 0002:00003BD0       unk_1013CBD0
 0002:00003BDC       adts_2
 0002:00003BE4       padt_26
 0002:00003BF4       unk_1013CBF4
 0002:00003C00       stru_1013CC00
 0002:00003C08       padt_27
 0002:00003C18       padt_28
 0002:00003C28       half_tw
 0002:00003C30       padt_29
 0002:00003C40       sadt_15
 0002:00003C4C       padt_30
 0002:00003C5C       sadt_16
 0002:00003C68       padt_31
 0002:00003C78       sadt_17
 0002:00003C84       padt_32
 0002:00003C94       sadt_18
 0002:00003CA0       primes
 0002:00003CB0       padt_33
 0002:00003CC0       sadt_19
 0002:00003CCC       padt_34
 0002:00003CDC       sadt_20
 0002:00003CE8       padt_35
 0002:00003CF8       sadt_21
 0002:00003D04       padt_36
 0002:00003D14       unk_1013CD14
 0002:00003D20       padt_37
 0002:00003D30       s_0
 0002:00003DD0       maxnbufs
 0002:00003DD8       padt_38
 0002:00003DE8       unk_1013CDE8
 0002:00003DF4       maxnbufs_2
 0002:00003DFC       padt_39
 0002:00003E0C       unk_1013CE0C
 0002:00003E18       K2PI
 0002:00003E20       _fftwf_an_INT_guaranteed_to_be_zero
 0002:00003E24       padt_40
 0002:00003E38       dword_1013CE38
 0002:00003E48       relax_tab
 0002:00003E5C       stimeout
 0002:00003E64       padt_41
 0002:00003E78       sintab
 0002:00003F78       roundtab_1
 0002:00003FF8       stru_1013CFF8
 0002:00004014       stru_1013D014
 0002:00004028       stru_1013D028
 0002:00004068       stru_1013D068
 0002:000040A8       stru_1013D0A8
 0002:000040BC       stru_1013D0BC
 0002:000040E0       stru_1013D0E0
 0002:00004120       stru_1013D120
 0002:00004160       stru_1013D160
 0002:00004184       stru_1013D184
 0002:000041A8       stru_1013D1A8
 0002:000041E8       stru_1013D1E8
 0002:00004228       stru_1013D228
 0002:0000424C       stru_1013D24C
 0002:00004268       stru_1013D268
 0002:000042A8       stru_1013D2A8
 0002:000042E8       stru_1013D2E8
 0002:00004304       stru_1013D304
 0002:00004318       stru_1013D318
 0002:00004358       stru_1013D358
 0002:00004398       stru_1013D398
 0002:000043AC       stru_1013D3AC
 0002:000043D0       stru_1013D3D0
 0002:00004410       stru_1013D410
 0002:00004450       stru_1013D450
 0002:00004474       stru_1013D474
 0002:00004498       stru_1013D498
 0002:000044D8       stru_1013D4D8
 0002:00004518       stru_1013D518
 0002:0000453C       stru_1013D53C
 0002:00004558       stru_1013D558
 0002:00004598       stru_1013D598
 0002:000045D8       stru_1013D5D8
 0002:0000463C       stru_1013D63C
 0002:00004660       stru_1013D660
 0002:000046A0       stru_1013D6A0
 0002:000046E4       stru_1013D6E4
 0002:00004708       stru_1013D708
 0002:00004748       stru_1013D748
 0002:000047CC       stru_1013D7CC
 0002:000047F0       stru_1013D7F0
 0002:00004830       stru_1013D830
 0002:000048B4       stru_1013D8B4
 0002:000048E8       stru_1013D8E8
 0002:00004928       stru_1013D928
 0002:00004A0C       stru_1013DA0C
 0002:00004A30       stru_1013DA30
 0002:00004A70       stru_1013DA70
 0002:00005254       stru_1013E254
 0002:00005268       stru_1013E268
 0002:000052A8       stru_1013E2A8
 0002:0000532C       stru_1013E32C
 0002:00005360       stru_1013E360
 0002:000053A0       stru_1013E3A0
 0002:00005404       stru_1013E404
 0002:00005428       stru_1013E428
 0002:00005468       stru_1013E468
 0002:0000584C       stru_1013E84C
 0002:00005860       stru_1013E860
 0002:000058A0       stru_1013E8A0
 0002:00005BA4       stru_1013EBA4
 0002:00005BD8       stru_1013EBD8
 0002:00005C18       stru_1013EC18
 0002:00005E7C       stru_1013EE7C
 0002:00005EA0       stru_1013EEA0
 0002:00005EE0       stru_1013EEE0
 0002:00005F20       stru_1013EF20
 0002:00006104       stru_1013F104
 0002:00006118       stru_1013F118
 0002:00006158       stru_1013F158
 0002:0000627C       stru_1013F27C
 0002:000062B0       stru_1013F2B0
 0002:000062F0       stru_1013F2F0
 0002:000063D4       stru_1013F3D4
 0002:000063F8       stru_1013F3F8
 0002:00006438       stru_1013F438
 0002:00006C1C       stru_1013FC1C
 0002:00006C30       stru_1013FC30
 0002:00006C70       stru_1013FC70
 0002:00006CF4       stru_1013FCF4
 0002:00006D28       stru_1013FD28
 0002:00006D68       stru_1013FD68
 0002:00006DCC       stru_1013FDCC
 0002:00006DE0       stru_1013FDE0
 0002:00006E20       stru_1013FE20
 0002:00007204       stru_10140204
 0002:00007238       stru_10140238
 0002:00007278       stru_10140278
 0002:0000757C       stru_1014057C
 0002:00007590       stru_10140590
 0002:000075D0       stru_101405D0
 0002:00007834       stru_10140834
 0002:00007840       stru_10140840
 0002:00007880       stru_10140880
 0002:000078C0       stru_101408C0
 0002:00007AA4       stru_10140AA4
 0002:00007AB0       stru_10140AB0
 0002:00007AF0       stru_10140AF0
 0002:00007C14       stru_10140C14
 0002:00007C28       stru_10140C28
 0002:00007C68       stru_10140C68
 0002:00007D4C       stru_10140D4C
 0002:00007D60       stru_10140D60
 0002:00007DA0       stru_10140DA0
 0002:00007E04       stru_10140E04
 0002:00007E18       stru_10140E18
 0002:00007E58       stru_10140E58
 0002:0000823C       stru_1014123C
 0002:00008250       stru_10141250
 0002:00008290       stru_10141290
 0002:000082D0       stru_101412D0
 0002:000084B4       unk_101414B4
 0002:000084C0       stru_101414C0
 0002:00008500       stru_10141500
 0002:00008584       unk_10141584
 0002:00008590       stru_10141590
 0002:000085D0       stru_101415D0
 0002:00008644       buddies_5
 0002:00008650       stru_10141650
 0002:00008690       stru_10141690
 0002:000086F4       sadt_22
 0002:00008700       stru_10141700
 0002:00008740       stru_10141740
 0002:00008B34       padt_42
 0002:00008B48       stru_10141B48
 0002:00008B88       stru_10141B88
 0002:00008BDC       sadt_23
 0002:00008BE8       stru_10141BE8
 0002:00008C28       stru_10141C28
 0002:00008C6C       adt_before_1
 0002:00008C78       stru_10141C78
 0002:00008CB8       stru_10141CB8
 0002:00008CF8       stru_10141CF8
 0002:00008EEC       adt_after_1
 0002:00008EF8       stru_10141EF8
 0002:00008F38       stru_10141F38
 0002:00008F78       stru_10141F78
 0002:000090FC       unk_101420FC
 0002:00009108       stru_10142108
 0002:00009148       stru_10142148
 0002:0000927C       sadt_24
 0002:00009288       stru_10142288
 0002:000092C8       stru_101422C8
 0002:00009308       stru_10142308
 0002:000093FC       sadt_25
 0002:00009408       stru_10142408
 0002:00009448       stru_10142448
 0002:0000952C       sadt_26
 0002:00009538       stru_10142538
 0002:00009578       stru_10142578
 0002:0000962C       radices
 0002:00009648       stru_10142648
 0002:00009688       stru_10142688
 0002:0000971C       batchsizes
 0002:00009730       stru_10142730
 0002:00009770       stru_10142770
 0002:000097F4       unk_101427F4
 0002:00009800       stru_10142800
 0002:00009840       stru_10142840
 0002:000098B4       unk_101428B4
 0002:000098C0       stru_101428C0
 0002:00009900       stru_10142900
 0002:00009964       sadt_27
 0002:00009970       stru_10142970
 0002:000099B0       stru_101429B0
 0002:00009A04       _fftwf_cc
 0002:00009A07       _fftwf_codelet_optim
 0002:00009A08       stru_10142A08
 0002:00009A48       stru_10142A48
 0002:00009A90       stru_10142A90
 0002:00009AD0       stru_10142AD0
 0002:00009B10       stru_10142B10
 0002:00009B50       stru_10142B50
 0002:00009B90       stru_10142B90
 0002:00009C28       stru_10142C28
 0002:00009C68       stru_10142C68
 0002:00009CF0       stru_10142CF0
 0002:00009D30       stru_10142D30
 0002:00009DA8       stru_10142DA8
 0002:00009DE8       stru_10142DE8
 0002:00009E50       stru_10142E50
 0002:00009E90       stru_10142E90
 0002:0000A288       stru_10143288
 0002:0000A2C8       stru_101432C8
 0002:0000A320       stru_10143320
 0002:0000A360       stru_10143360
 0002:0000A3A8       stru_101433A8
 0002:0000A3E8       stru_101433E8
 0002:0000A428       stru_10143428
 0002:0000A620       stru_10143620
 0002:0000A660       stru_10143660
 0002:0000A6A0       stru_101436A0
 0002:0000A828       stru_10143828
 0002:0000A868       stru_10143868
 0002:0000A9A0       stru_101439A0
 0002:0000A9E0       stru_101439E0
 0002:0000AA20       stru_10143A20
 0002:0000AB18       stru_10143B18
 0002:0000AB58       stru_10143B58
 0002:0000AC40       stru_10143C40
 0002:0000AC80       stru_10143C80
 0002:0000AD38       stru_10143D38
 0002:0000AD78       stru_10143D78
 0002:0000AE10       stru_10143E10
 0002:0000AE50       stru_10143E50
 0002:0000AED8       stru_10143ED8
 0002:0000AF18       stru_10143F18
 0002:0000AF90       stru_10143F90
 0002:0000AFD0       stru_10143FD0
 0002:0000B038       stru_10144038
 0002:0000B078       stru_10144078
 0002:0000B0D0       stru_101440D0
 0002:0000B110       stru_10144110
 0002:0000B158       stru_10144158
 0002:0000B198       stru_10144198
 0002:0000B1D8       stru_101441D8
 0002:0000B218       stru_10144218
 0002:0000B258       stru_10144258
 0002:0000B2F0       stru_101442F0
 0002:0000B330       stru_10144330
 0002:0000B3A8       stru_101443A8
 0002:0000B3E8       stru_101443E8
 0002:0000B430       stru_10144430
 0002:0000B470       stru_10144470
 0002:0000B4B0       stru_101444B0
 0002:0000B4F0       stru_101444F0
 0002:0000B568       stru_10144568
 0002:0000B5A8       stru_101445A8
 0002:0000B5F0       stru_101445F0
 0002:0000B630       stru_10144630
 0002:0000B670       stru_10144670
 0002:0000B6B0       stru_101446B0
 0002:0000B6F0       stru_101446F0
 0002:0000B730       stru_10144730
 0002:0000B770       stru_10144770
 0002:0000B7B0       stru_101447B0
 0002:0000B7F0       stru_101447F0
 0002:0000B830       stru_10144830
 0002:0000B870       stru_10144870
 0002:0000B8B0       stru_101448B0
 0002:0000B8F0       stru_101448F0
 0002:0000B930       stru_10144930
 0002:0000B970       stru_10144970
 0002:0000B9B0       stru_101449B0
 0002:0000B9F0       stru_101449F0
 0002:0000BA30       stru_10144A30
 0002:0000BA70       stru_10144A70
 0002:0000BAB0       stru_10144AB0
 0002:0000BAF0       stru_10144AF0
 0002:0000BB30       stru_10144B30
 0002:0000BB70       stru_10144B70
 0002:0000BBB0       stru_10144BB0
 0002:0000BBF0       stru_10144BF0
 0002:0000BC30       stru_10144C30
 0002:0000BC70       stru_10144C70
 0002:0000BCB0       stru_10144CB0
 0002:0000BCF0       stru_10144CF0
 0002:0000BD30       stru_10144D30
 0002:0000BD70       stru_10144D70
 0002:0000BDB0       stru_10144DB0
 0002:0000BDF0       stru_10144DF0
 0002:0000BE30       stru_10144E30
 0002:0000BE70       stru_10144E70
 0002:0000BEB0       stru_10144EB0
 0002:0000BEF0       stru_10144EF0
 0002:0000BF30       stru_10144F30
 0002:0000BF70       stru_10144F70
 0002:0000BFB0       stru_10144FB0
 0002:0000BFF0       stru_10144FF0
 0002:0000C030       stru_10145030
 0002:0000C070       stru_10145070
 0002:0000C0B0       stru_101450B0
 0002:0000C0F0       stru_101450F0
 0002:0000C130       stru_10145130
 0002:0000C170       stru_10145170
 0002:0000C1B0       stru_101451B0
 0002:0000C1F0       stru_101451F0
 0002:0000C230       stru_10145230
 0002:0000C270       stru_10145270
 0002:0000C2B0       stru_101452B0
 0002:0000C2F0       stru_101452F0
 0002:0000C330       stru_10145330
 0002:0000C370       stru_10145370
 0002:0000C3B0       stru_101453B0
 0002:0000C3F0       stru_101453F0
 0002:0000C430       stru_10145430
 0002:0000C470       stru_10145470
 0002:0000C4B0       stru_101454B0
 0002:0000C4F0       stru_101454F0
 0002:0000C530       stru_10145530
 0002:0000C570       stru_10145570
 0002:0000C5B0       stru_101455B0
 0002:0000C5F0       stru_101455F0
 0002:0000C630       stru_10145630
 0002:0000C670       stru_10145670
 0002:0000C6B0       stru_101456B0
 0002:0000C6F0       stru_101456F0
 0002:0000C730       stru_10145730
 0002:0000C770       _fftwf_dft_n1bsimd_genus_sse2
 0002:0000C778       _fftwf_dft_n1fsimd_genus_sse2
 0002:0000C780       _fftwf_dft_n2bsimd_genus_sse2
 0002:0000C788       _fftwf_dft_n2fsimd_genus_sse2
 0002:0000C790       _fftwf_dft_n2ssimd_genus_sse2
 0002:0000C798       _fftwf_dft_q1bsimd_genus_sse2
 0002:0000C7A0       _fftwf_dft_q1fsimd_genus_sse2
 0002:0000C7A8       _fftwf_dft_t1fsimd_genus_sse2
 0002:0000C7B0       _fftwf_dft_t1fusimd_genus_sse2
 0002:0000C7B8       _fftwf_dft_t1bsimd_genus_sse2
 0002:0000C7C0       _fftwf_dft_t1busimd_genus_sse2
 0002:0000C7C8       _fftwf_dft_t2fsimd_genus_sse2
 0002:0000C7D0       _fftwf_dft_t2bsimd_genus_sse2
 0002:0000C7D8       _fftwf_dft_tssimd_genus_sse2
 0002:0000C7E0       _fftwf_solvtab_dft_sse2
 0002:0000C7E4       off_101457E4
 0002:0000CD38       _fftwf_dft_t_genus
 0002:0000CD40       _fftwf_dft_n_genus
 0002:0000CD48       stru_10145D48
 0002:0000CD58       stru_10145D58
 0002:0000CD98       stru_10145D98
 0002:0000CDB0       stru_10145DB0
 0002:0000CDF0       stru_10145DF0
 0002:0000CE30       stru_10145E30
 0002:0000CE70       stru_10145E70
 0002:0000CEB0       stru_10145EB0
 0002:0000CEF0       stru_10145EF0
 0002:0000CF30       stru_10145F30
 0002:0000CF70       stru_10145F70
 0002:0000CF80       stru_10145F80
 0002:0000CFC0       stru_10145FC0
 0002:0000CFC8       stru_10145FC8
 0002:0000D008       stru_10146008
 0002:0000D010       stru_10146010
 0002:0000D050       stru_10146050
 0002:0000D058       stru_10146058
 0002:0000D098       stru_10146098
 0002:0000D0A0       stru_101460A0
 0002:0000D0E0       stru_101460E0
 0002:0000D0E8       stru_101460E8
 0002:0000D128       stru_10146128
 0002:0000D130       stru_10146130
 0002:0000D170       stru_10146170
 0002:0000D178       stru_10146178
 0002:0000D1B8       stru_101461B8
 0002:0000D1C0       stru_101461C0
 0002:0000D200       stru_10146200
 0002:0000D208       stru_10146208
 0002:0000D248       stru_10146248
 0002:0000D250       stru_10146250
 0002:0000D290       stru_10146290
 0002:0000D298       stru_10146298
 0002:0000D2D8       stru_101462D8
 0002:0000D2E0       stru_101462E0
 0002:0000D320       stru_10146320
 0002:0000D328       stru_10146328
 0002:0000D368       stru_10146368
 0002:0000D370       stru_10146370
 0002:0000D3B0       stru_101463B0
 0002:0000D3B8       stru_101463B8
 0002:0000D3F8       stru_101463F8
 0002:0000D400       stru_10146400
 0002:0000D440       stru_10146440
 0002:0000D448       stru_10146448
 0002:0000D488       stru_10146488
 0002:0000D490       stru_10146490
 0002:0000D4D0       stru_101464D0
 0002:0000D4D8       stru_101464D8
 0002:0000D518       stru_10146518
 0002:0000D520       stru_10146520
 0002:0000D560       stru_10146560
 0002:0000D568       stru_10146568
 0002:0000D5A8       stru_101465A8
 0002:0000D5B0       stru_101465B0
 0002:0000D5F0       stru_101465F0
 0002:0000D630       stru_10146630
 0002:0000D670       stru_10146670
 0002:0000D6B0       stru_101466B0
 0002:0000D6F0       stru_101466F0
 0002:0000D730       stru_10146730
 0002:0000D770       stru_10146770
 0002:0000D7B0       stru_101467B0
 0002:0000D7F0       stru_101467F0
 0002:0000D830       stru_10146830
 0002:0000D870       stru_10146870
 0002:0000D8B0       stru_101468B0
 0002:0000D8F0       stru_101468F0
 0002:0000D930       stru_10146930
 0002:0000D970       stru_10146970
 0002:0000D9B0       stru_101469B0
 0002:0000D9F0       stru_101469F0
 0002:0000DA30       stru_10146A30
 0002:0000DA70       stru_10146A70
 0002:0000DAB0       _fftwf_solvtab_dft_standard
 0002:0000DAB4       off_10146AB4
 0002:0000DC48       padt_43
 0002:0000DC58       buddies_6
 0002:0000DC60       padt_44
 0002:0000DC70       padt_45
 0002:0000DC80       padt_46
 0002:0000DC90       padt_47
 0002:0000DCA0       adts_0
 0002:0000DCA8       padt_48
 0002:0000DCB8       half_tw_1
 0002:0000DCC0       padt_49
 0002:0000DCD0       padt_50
 0002:0000DCE0       padt_51
 0002:0000DCF0       instr
 0002:0000DCF8       padt_52
 0002:0000DD08       padt_53
 0002:0000DD18       padt_54
 0002:0000DD28       padt_55
 0002:0000DD38       s_1
 0002:0000DD98       maxnbufs_0
 0002:0000DDA0       padt_56
 0002:0000DDB0       padt_57
 0002:0000DDC0       _fftwf_version
 0002:0000DDD0       xmmword_10146DD0
 0002:0000DDE0       xmmword_10146DE0
 0002:0000DDF0       xmmword_10146DF0
 0002:0000DE00       xmmword_10146E00
 0002:0000DE10       xmmword_10146E10
 0002:0000DE20       xmmword_10146E20
 0002:0000DE30       xmmword_10146E30
 0002:0000DE40       xmmword_10146E40
 0002:0000DE50       xmmword_10146E50
 0002:0000DE60       xmmword_10146E60
 0002:0000DE70       xmmword_10146E70
 0002:0000DE80       xmmword_10146E80
 0002:0000DE90       xmmword_10146E90
 0002:0000DEA0       xmmword_10146EA0
 0002:0000DEB0       xmmword_10146EB0
 0002:0000DEC0       xmmword_10146EC0
 0002:0000DED0       xmmword_10146ED0
 0002:0000DEE0       xmmword_10146EE0
 0002:0000DEF0       xmmword_10146EF0
 0002:0000DF00       xmmword_10146F00
 0002:0000DF10       xmmword_10146F10
 0002:0000DF20       xmmword_10146F20
 0002:0000DF30       xmmword_10146F30
 0002:0000DF40       xmmword_10146F40
 0002:0000DF50       xmmword_10146F50
 0002:0000DF60       xmmword_10146F60
 0002:0000DF70       xmmword_10146F70
 0002:0000DF80       xmmword_10146F80
 0002:0000DF90       xmmword_10146F90
 0002:0000DFA0       xmmword_10146FA0
 0002:0000DFB0       xmmword_10146FB0
 0002:0000DFC0       xmmword_10146FC0
 0002:0000DFD0       xmmword_10146FD0
 0002:0000DFE0       xmmword_10146FE0
 0002:0000DFF0       xmmword_10146FF0
 0002:0000E000       xmmword_10147000
 0002:0000E010       xmmword_10147010
 0002:0000E020       xmmword_10147020
 0002:0000E030       xmmword_10147030
 0002:0000E040       xmmword_10147040
 0002:0000E050       xmmword_10147050
 0002:0000E060       xmmword_10147060
 0002:0000E070       xmmword_10147070
 0002:0000E080       xmmword_10147080
 0002:0000E090       xmmword_10147090
 0002:0000E0A0       xmmword_101470A0
 0002:0000E0B0       xmmword_101470B0
 0002:0000E0C0       xmmword_101470C0
 0002:0000E0D0       xmmword_101470D0
 0002:0000E0E0       xmmword_101470E0
 0002:0000E0F0       xmmword_101470F0
 0002:0000E100       xmmword_10147100
 0002:0000E110       xmmword_10147110
 0002:0000E120       xmmword_10147120
 0002:0000E130       xmmword_10147130
 0002:0000E140       xmmword_10147140
 0002:0000E150       xmmword_10147150
 0002:0000E160       xmmword_10147160
 0002:0000E170       xmmword_10147170
 0002:0000E180       xmmword_10147180
 0002:0000E190       xmmword_10147190
 0002:0000E1A0       xmmword_101471A0
 0002:0000E1B0       xmmword_101471B0
 0002:0000E1C0       xmmword_101471C0
 0002:0000E1D0       xmmword_101471D0
 0002:0000E1E0       xmmword_101471E0
 0002:0000E1F0       xmmword_101471F0
 0002:0000E200       xmmword_10147200
 0002:0000E210       xmmword_10147210
 0002:0000E220       xmmword_10147220
 0002:0000E230       xmmword_10147230
 0002:0000E240       xmmword_10147240
 0002:0000E250       xmmword_10147250
 0002:0000E260       xmmword_10147260
 0002:0000E270       xmmword_10147270
 0002:0000E280       xmmword_10147280
 0002:0000E290       xmmword_10147290
 0002:0000E2A0       xmmword_101472A0
 0002:0000E2B0       xmmword_101472B0
 0002:0000E2C0       xmmword_101472C0
 0002:0000E2D0       xmmword_101472D0
 0002:0000E2E0       xmmword_101472E0
 0002:0000E2F0       xmmword_101472F0
 0002:0000E300       xmmword_10147300
 0002:0000E310       xmmword_10147310
 0002:0000E320       xmmword_10147320
 0002:0000E330       xmmword_10147330
 0002:0000E340       xmmword_10147340
 0002:0000E350       xmmword_10147350
 0002:0000E360       xmmword_10147360
 0002:0000E370       xmmword_10147370
 0002:0000E380       xmmword_10147380
 0002:0000E390       xmmword_10147390
 0002:0000E3A0       xmmword_101473A0
 0002:0000E3B0       xmmword_101473B0
 0002:0000E3C0       xmmword_101473C0
 0002:0000E3D0       xmmword_101473D0
 0002:0000E3E0       xmmword_101473E0
 0002:0000E3F0       xmmword_101473F0
 0002:0000E400       xmmword_10147400
 0002:0000E410       xmmword_10147410
 0002:0000E420       xmmword_10147420
 0002:0000E430       xmmword_10147430
 0002:0000E440       xmmword_10147440
 0002:0000E450       xmmword_10147450
 0002:0000E460       xmmword_10147460
 0002:0000E470       xmmword_10147470
 0002:0000E480       xmmword_10147480
 0002:0000E490       xmmword_10147490
 0002:0000E4A0       xmmword_101474A0
 0002:0000E4B0       xmmword_101474B0
 0002:0000E4C0       xmmword_101474C0
 0002:0000E4D0       xmmword_101474D0
 0002:0000E4E0       xmmword_101474E0
 0002:0000E4F0       xmmword_101474F0
 0002:0000E500       xmmword_10147500
 0002:0000E510       xmmword_10147510
 0002:0000E520       xmmword_10147520
 0002:0000E530       xmmword_10147530
 0002:0000E540       xmmword_10147540
 0002:0000E550       xmmword_10147550
 0002:0000E560       xmmword_10147560
 0002:0000E570       xmmword_10147570
 0002:0000E580       xmmword_10147580
 0002:0000E590       xmmword_10147590
 0002:0000E5A0       xmmword_101475A0
 0002:0000E5B0       xmmword_101475B0
 0002:0000E5C0       aDftBluesteinDD
 0002:0000E5DC       aDftBufferedDVD
 0002:0000E608       aFftwf_ct_gener
 0002:0000E628       aFftwf_ct_gen_1
 0002:0000E644       aFftwf_dft_nop_
 0002:0000E65C       aFftwf_dft_blue
 0002:0000E67C       aFftwf_dft_rade
 0002:0000E698       aFftwf_dft_gene
 0002:0000E6B4       aFftwf_dft_buff
 0002:0000E6D0       aFftwf_dft_vran
 0002:0000E6F0       aFftwf_dft_rank
 0002:0000E710       aFftwf_dft_in_1
 0002:0000E738       aFftwf_dft_indi
 0002:0000E754       aDit
 0002:0000E758       aDif
 0002:0000E75C       aDftCtSDPP
 0002:0000E778       aDftwDirectbufD
 0002:0000E79C       aDftwDirectDDVS
 0002:0000E7B8       aDftwDirectsqDD
 0002:0000E7D8       aDftwGenericSDD
 0002:0000E7F8       aDftwGenericbuf
 0002:0000E81C       aDftDirectbufDD
 0002:0000E83C       aDftDirectDVS
 0002:0000E854       aDftGenericD
 0002:0000E868       aIndirectTransp
 0002:0000E894       aDftIndirectAft
 0002:0000E8A8       aDftIndirectBef
 0002:0000E8BC       aSPP
 0002:0000E8D0       aDftNop
 0002:0000E8DC       aDft
 0002:0000E8E0       aDftDDDDDTT
 0002:0000E8FC       aDftRaderDOisOo
 0002:0000E91C       aP_2
 0002:0000E924       aDftRank2DPP
 0002:0000E944       aDftVrank1XDDP
 0002:0000E960       aFftwf_codel_12
 0002:0000E974       asc_10147974
 0002:0000E988       asc_10147988
 0002:0000E99C       asc_1014799C
 0002:0000E9B0       asc_101479B0
 0002:0000E9C4       asc_101479C4
 0002:0000E9D8       asc_101479D8
 0002:0000E9EC       asc_101479EC
 0002:0000EA00       aFftwf_codel_45
 0002:0000EA14       asc_10147A14
 0002:0000EA28       asc_10147A28
 0002:0000EA3C       asc_10147A3C
 0002:0000EA50       asc_10147A50
 0002:0000EA64       asc_10147A64
 0002:0000EA78       aFftwf_codel_88
 0002:0000EA8C       asc_10147A8C
 0002:0000EAA0       asc_10147AA0
 0002:0000EAB4       asc_10147AB4
 0002:0000EAC8       asc_10147AC8
 0002:0000EADC       asc_10147ADC
 0002:0000EAF0       asc_10147AF0
 0002:0000EB04       asc_10147B04
 0002:0000EB18       asc_10147B18
 0002:0000EB2C       aFftwf_codel_35
 0002:0000EB40       asc_10147B40
 0002:0000EB54       aFftwf_codel_84
 0002:0000EB68       asc_10147B68
 0002:0000EB7C       aFftwf_codel_64
 0002:0000EB90       asc_10147B90
 0002:0000EBA4       asc_10147BA4
 0002:0000EBB8       asc_10147BB8
 0002:0000EBCC       aFftwf_codel_51
 0002:0000EBE0       asc_10147BE0
 0002:0000EBF4       asc_10147BF4
 0002:0000EC08       asc_10147C08
 0002:0000EC1C       asc_10147C1C
 0002:0000EC30       asc_10147C30
 0002:0000EC44       asc_10147C44
 0002:0000EC58       asc_10147C58
 0002:0000EC6C       asc_10147C6C
 0002:0000EC80       aFftwf_codel_87
 0002:0000EC94       asc_10147C94
 0002:0000ECA8       aFftwf_codel_19
 0002:0000ECBC       aFftwf_codel_28
 0002:0000ECD0       asc_10147CD0
 0002:0000ECE4       aFftwf_codel_41
 0002:0000ECF8       aFftwf_codel_75
 0002:0000ED0C       asc_10147D0C
 0002:0000ED20       asc_10147D20
 0002:0000ED34       asc_10147D34
 0002:0000ED48       aN1_10
 0002:0000ED50       aN1_11
 0002:0000ED58       aN1_12
 0002:0000ED60       aN1_13
 0002:0000ED68       aN1_14
 0002:0000ED70       aN1_15
 0002:0000ED78       aN1_16
 0002:0000ED80       aN1_2
 0002:0000ED88       aN1_20
 0002:0000ED90       aN1_25
 0002:0000ED98       aN1_3
 0002:0000EDA0       aN1_32
 0002:0000EDA8       aN1_4
 0002:0000EDB0       aN1_5
 0002:0000EDB8       aN1_6
 0002:0000EDC0       aN1_64
 0002:0000EDC8       aN1_7
 0002:0000EDD0       aN1_8
 0002:0000EDD8       aN1_9
 0002:0000EDE0       aQ1_2
 0002:0000EDE8       aQ1_3
 0002:0000EDF0       aQ1_4
 0002:0000EDF8       aQ1_5
 0002:0000EE00       aQ1_6
 0002:0000EE08       aQ1_8
 0002:0000EE10       aT1_10
 0002:0000EE18       aT1_12
 0002:0000EE20       aT1_15
 0002:0000EE28       aT1_16
 0002:0000EE30       aT1_2
 0002:0000EE38       aT1_20
 0002:0000EE40       aT1_25
 0002:0000EE48       aT1_3
 0002:0000EE50       aT1_32
 0002:0000EE58       aT1_4
 0002:0000EE60       aT1_5
 0002:0000EE68       aT1_6
 0002:0000EE70       aT1_64
 0002:0000EE78       aT1_7
 0002:0000EE80       aT1_8
 0002:0000EE88       aT1_9
 0002:0000EE90       aT2_10
 0002:0000EE98       aT2_16
 0002:0000EEA0       aT2_20
 0002:0000EEA8       aT2_25
 0002:0000EEB0       aT2_32
 0002:0000EEB8       aT2_4
 0002:0000EEC0       aT2_5
 0002:0000EEC8       aT2_64
 0002:0000EED0       aT2_8
 0002:0000EED8       asc_10147ED8
 0002:0000EEF4       aFftwf_codel_69
 0002:0000EF10       asc_10147F10
 0002:0000EF2C       aFftwf_codel_37
 0002:0000EF48       asc_10147F48
 0002:0000EF64       asc_10147F64
 0002:0000EF80       aFftwf_codel_23
 0002:0000EF9C       asc_10147F9C
 0002:0000EFB8       aFftwf_codel_58
 0002:0000EFD4       aFftwf_codel_42
 0002:0000EFF0       asc_10147FF0
 0002:0000F00C       aFftwf_codel_56
 0002:0000F028       asc_10148028
 0002:0000F044       asc_10148044
 0002:0000F060       asc_10148060
 0002:0000F07C       asc_1014807C
 0002:0000F098       aFftwf_codel_14
 0002:0000F0B4       asc_101480B4
 0002:0000F0D0       asc_101480D0
 0002:0000F0EC       aFftwf_codel_63
 0002:0000F108       asc_10148108
 0002:0000F124       asc_10148124
 0002:0000F140       asc_10148140
 0002:0000F15C       asc_1014815C
 0002:0000F178       asc_10148178
 0002:0000F194       asc_10148194
 0002:0000F1B0       asc_101481B0
 0002:0000F1CC       aFftwf_codel_65
 0002:0000F1E8       asc_101481E8
 0002:0000F204       asc_10148204
 0002:0000F220       asc_10148220
 0002:0000F23C       aFftwf_codel_16
 0002:0000F258       asc_10148258
 0002:0000F274       asc_10148274
 0002:0000F290       asc_10148290
 0002:0000F2AC       aFftwf_codel_57
 0002:0000F2C8       asc_101482C8
 0002:0000F2E4       asc_101482E4
 0002:0000F300       asc_10148300
 0002:0000F31C       asc_1014831C
 0002:0000F338       asc_10148338
 0002:0000F354       aFftwf_codel_10
 0002:0000F370       asc_10148370
 0002:0000F38C       aFftwf_codel_50
 0002:0000F3A8       asc_101483A8
 0002:0000F3C4       asc_101483C4
 0002:0000F3E0       aFftwf_codele_8
 0002:0000F3FC       asc_101483FC
 0002:0000F418       aFftwf_codel_34
 0002:0000F434       asc_10148434
 0002:0000F450       asc_10148450
 0002:0000F46C       asc_1014846C
 0002:0000F488       asc_10148488
 0002:0000F4A4       aFftwf_codel_48
 0002:0000F4C0       asc_101484C0
 0002:0000F4DC       asc_101484DC
 0002:0000F4F8       asc_101484F8
 0002:0000F514       aFftwf_codel_79
 0002:0000F530       asc_10148530
 0002:0000F54C       asc_1014854C
 0002:0000F568       aFftwf_codel_33
 0002:0000F584       asc_10148584
 0002:0000F5A0       aFftwf_codel_17
 0002:0000F5BC       asc_101485BC
 0002:0000F5D8       asc_101485D8
 0002:0000F5F4       asc_101485F4
 0002:0000F610       aFftwf_codel_66
 0002:0000F62C       asc_1014862C
 0002:0000F648       aFftwf_codel_44
 0002:0000F664       asc_10148664
 0002:0000F680       asc_10148680
 0002:0000F69C       asc_1014869C
 0002:0000F6B8       asc_101486B8
 0002:0000F6D4       aFftwf_codel_71
 0002:0000F6F0       asc_101486F0
 0002:0000F70C       aFftwf_codel_68
 0002:0000F728       asc_10148728
 0002:0000F744       asc_10148744
 0002:0000F760       asc_10148760
 0002:0000F77C       aFftwf_codele_6
 0002:0000F798       asc_10148798
 0002:0000F7B4       asc_101487B4
 0002:0000F7D0       asc_101487D0
 0002:0000F7EC       asc_101487EC
 0002:0000F808       asc_10148808
 0002:0000F824       asc_10148824
 0002:0000F840       asc_10148840
 0002:0000F85C       asc_1014885C
 0002:0000F878       asc_10148878
 0002:0000F894       asc_10148894
 0002:0000F8B0       asc_101488B0
 0002:0000F8CC       asc_101488CC
 0002:0000F8E8       asc_101488E8
 0002:0000F904       aFftwf_codel_39
 0002:0000F920       asc_10148920
 0002:0000F93C       aFftwf_codel_67
 0002:0000F958       asc_10148958
 0002:0000F974       asc_10148974
 0002:0000F990       asc_10148990
 0002:0000F9AC       asc_101489AC
 0002:0000F9C8       asc_101489C8
 0002:0000F9E4       asc_101489E4
 0002:0000FA00       asc_10148A00
 0002:0000FA1C       asc_10148A1C
 0002:0000FA38       asc_10148A38
 0002:0000FA54       aFftwf_codel_29
 0002:0000FA70       aFftwf_codel_32
 0002:0000FA8C       asc_10148A8C
 0002:0000FAA8       asc_10148AA8
 0002:0000FAC4       asc_10148AC4
 0002:0000FAE0       asc_10148AE0
 0002:0000FAFC       aFftwf_codel_36
 0002:0000FB18       asc_10148B18
 0002:0000FB34       aFftwf_codel_52
 0002:0000FB50       asc_10148B50
 0002:0000FB6C       asc_10148B6C
 0002:0000FB88       asc_10148B88
 0002:0000FBA4       aFftwf_codel_53
 0002:0000FBC0       asc_10148BC0
 0002:0000FBDC       asc_10148BDC
 0002:0000FBF8       aFftwf_codel_73
 0002:0000FC14       asc_10148C14
 0002:0000FC30       asc_10148C30
 0002:0000FC4C       asc_10148C4C
 0002:0000FC68       aFftwf_codel_55
 0002:0000FC84       asc_10148C84
 0002:0000FCA0       asc_10148CA0
 0002:0000FCBC       asc_10148CBC
 0002:0000FCD8       asc_10148CD8
 0002:0000FCF4       aFftwf_codel_47
 0002:0000FD10       asc_10148D10
 0002:0000FD2C       aFftwf_codel_30
 0002:0000FD48       asc_10148D48
 0002:0000FD64       asc_10148D64
 0002:0000FD80       asc_10148D80
 0002:0000FD9C       asc_10148D9C
 0002:0000FDB8       asc_10148DB8
 0002:0000FDD4       asc_10148DD4
 0002:0000FDF0       asc_10148DF0
 0002:0000FE0C       aFftwf_codel_61
 0002:0000FE28       asc_10148E28
 0002:0000FE44       aFftwf_codel_90
 0002:0000FE60       asc_10148E60
 0002:0000FE7C       aFftwf_codel_96
 0002:0000FE98       asc_10148E98
 0002:0000FEB4       aFftwf_codel_26
 0002:0000FED0       asc_10148ED0
 0002:0000FEEC       asc_10148EEC
 0002:0000FF08       asc_10148F08
 0002:0000FF24       asc_10148F24
 0002:0000FF40       asc_10148F40
 0002:0000FF5C       asc_10148F5C
 0002:0000FF78       aFftwf_codel_13
 0002:0000FF94       asc_10148F94
 0002:0000FFB0       asc_10148FB0
 0002:0000FFCC       asc_10148FCC
 0002:0000FFE8       asc_10148FE8
 0002:00010004       asc_10149004
 0002:00010020       aFftwf_codel_98
 0002:0001003C       asc_1014903C
 0002:00010058       asc_10149058
 0002:00010074       asc_10149074
 0002:00010090       asc_10149090
 0002:000100AC       asc_101490AC
 0002:000100C8       aFftwf_codel_70
 0002:000100E4       asc_101490E4
 0002:00010100       asc_10149100
 0002:0001011C       asc_1014911C
 0002:00010138       aFftwf_codel_86
 0002:00010154       asc_10149154
 0002:00010170       aN1bv_10_sse2
 0002:00010180       aN1bv_11_sse2
 0002:00010190       aN1bv_12_sse2
 0002:000101A0       aN1bv_128_sse2
 0002:000101B0       aN1bv_13_sse2
 0002:000101C0       aN1bv_14_sse2
 0002:000101D0       aN1bv_15_sse2
 0002:000101E0       aN1bv_16_sse2
 0002:000101F0       aN1bv_2_sse2
 0002:000101FC       aN1bv_20_sse2
 0002:0001020C       aN1bv_25_sse2
 0002:0001021C       aN1bv_3_sse2
 0002:00010228       aN1bv_32_sse2
 0002:00010238       aN1bv_4_sse2
 0002:00010244       aN1bv_5_sse2
 0002:00010250       aN1bv_6_sse2
 0002:0001025C       aN1bv_64_sse2
 0002:0001026C       aN1bv_7_sse2
 0002:00010278       aN1bv_8_sse2
 0002:00010284       aN1bv_9_sse2
 0002:00010290       aN1fv_10_sse2
 0002:000102A0       aN1fv_11_sse2
 0002:000102B0       aN1fv_12_sse2
 0002:000102C0       aN1fv_128_sse2
 0002:000102D0       aN1fv_13_sse2
 0002:000102E0       aN1fv_14_sse2
 0002:000102F0       aN1fv_15_sse2
 0002:00010300       aN1fv_16_sse2
 0002:00010310       aN1fv_2_sse2
 0002:0001031C       aN1fv_20_sse2
 0002:0001032C       aN1fv_25_sse2
 0002:0001033C       aN1fv_3_sse2
 0002:00010348       aN1fv_32_sse2
 0002:00010358       aN1fv_4_sse2
 0002:00010364       aN1fv_5_sse2
 0002:00010370       aN1fv_6_sse2
 0002:0001037C       aN1fv_64_sse2
 0002:0001038C       aN1fv_7_sse2
 0002:00010398       aN1fv_8_sse2
 0002:000103A4       aN1fv_9_sse2
 0002:000103B0       aN2bv_10_sse2
 0002:000103C0       aN2bv_12_sse2
 0002:000103D0       aN2bv_14_sse2
 0002:000103E0       aN2bv_16_sse2
 0002:000103F0       aN2bv_2_sse2
 0002:000103FC       aN2bv_20_sse2
 0002:0001040C       aN2bv_32_sse2
 0002:0001041C       aN2bv_4_sse2
 0002:00010428       aN2bv_6_sse2
 0002:00010434       aN2bv_64_sse2
 0002:00010444       aN2bv_8_sse2
 0002:00010450       aN2fv_10_sse2
 0002:00010460       aN2fv_12_sse2
 0002:00010470       aN2fv_14_sse2
 0002:00010480       aN2fv_16_sse2
 0002:00010490       aN2fv_2_sse2
 0002:0001049C       aN2fv_20_sse2
 0002:000104AC       aN2fv_32_sse2
 0002:000104BC       aN2fv_4_sse2
 0002:000104C8       aN2fv_6_sse2
 0002:000104D4       aN2fv_64_sse2
 0002:000104E4       aN2fv_8_sse2
 0002:000104F0       aN2sv_16_sse2
 0002:00010500       aN2sv_32_sse2
 0002:00010510       aN2sv_4_sse2
 0002:0001051C       aN2sv_64_sse2
 0002:0001052C       aN2sv_8_sse2
 0002:00010538       aQ1bv_2_sse2
 0002:00010544       aQ1bv_4_sse2
 0002:00010550       aQ1bv_5_sse2
 0002:0001055C       aQ1bv_8_sse2
 0002:00010568       aQ1fv_2_sse2
 0002:00010574       aQ1fv_4_sse2
 0002:00010580       aQ1fv_5_sse2
 0002:0001058C       aQ1fv_8_sse2
 0002:00010598       aT1buv_10_sse2
 0002:000105A8       aT1buv_2_sse2
 0002:000105B8       aT1buv_3_sse2
 0002:000105C8       aT1buv_4_sse2
 0002:000105D8       aT1buv_5_sse2
 0002:000105E8       aT1buv_6_sse2
 0002:000105F8       aT1buv_7_sse2
 0002:00010608       aT1buv_8_sse2
 0002:00010618       aT1buv_9_sse2
 0002:00010628       aT1bv_10_sse2
 0002:00010638       aT1bv_12_sse2
 0002:00010648       aT1bv_15_sse2
 0002:00010658       aT1bv_16_sse2
 0002:00010668       aT1bv_2_sse2
 0002:00010674       aT1bv_20_sse2
 0002:00010684       aT1bv_25_sse2
 0002:00010694       aT1bv_3_sse2
 0002:000106A0       aT1bv_32_sse2
 0002:000106B0       aT1bv_4_sse2
 0002:000106BC       aT1bv_5_sse2
 0002:000106C8       aT1bv_6_sse2
 0002:000106D4       aT1bv_64_sse2
 0002:000106E4       aT1bv_7_sse2
 0002:000106F0       aT1bv_8_sse2
 0002:000106FC       aT1bv_9_sse2
 0002:00010708       aT1fuv_10_sse2
 0002:00010718       aT1fuv_2_sse2
 0002:00010728       aT1fuv_3_sse2
 0002:00010738       aT1fuv_4_sse2
 0002:00010748       aT1fuv_5_sse2
 0002:00010758       aT1fuv_6_sse2
 0002:00010768       aT1fuv_7_sse2
 0002:00010778       aT1fuv_8_sse2
 0002:00010788       aT1fuv_9_sse2
 0002:00010798       aT1fv_10_sse2
 0002:000107A8       aT1fv_12_sse2
 0002:000107B8       aT1fv_15_sse2
 0002:000107C8       aT1fv_16_sse2
 0002:000107D8       aT1fv_2_sse2
 0002:000107E4       aT1fv_20_sse2
 0002:000107F4       aT1fv_25_sse2
 0002:00010804       aT1fv_3_sse2
 0002:00010810       aT1fv_32_sse2
 0002:00010820       aT1fv_4_sse2
 0002:0001082C       aT1fv_5_sse2
 0002:00010838       aT1fv_6_sse2
 0002:00010844       aT1fv_64_sse2
 0002:00010854       aT1fv_7_sse2
 0002:00010860       aT1fv_8_sse2
 0002:0001086C       aT1fv_9_sse2
 0002:00010878       aT1sv_16_sse2
 0002:00010888       aT1sv_2_sse2
 0002:00010894       aT1sv_32_sse2
 0002:000108A4       aT1sv_4_sse2
 0002:000108B0       aT1sv_8_sse2
 0002:000108BC       aT2bv_10_sse2
 0002:000108CC       aT2bv_16_sse2
 0002:000108DC       aT2bv_2_sse2
 0002:000108E8       aT2bv_20_sse2
 0002:000108F8       aT2bv_25_sse2
 0002:00010908       aT2bv_32_sse2
 0002:00010918       aT2bv_4_sse2
 0002:00010924       aT2bv_5_sse2
 0002:00010930       aT2bv_64_sse2
 0002:00010940       aT2bv_8_sse2
 0002:0001094C       aT2fv_10_sse2
 0002:0001095C       aT2fv_16_sse2
 0002:0001096C       aT2fv_2_sse2
 0002:00010978       aT2fv_20_sse2
 0002:00010988       aT2fv_25_sse2
 0002:00010998       aT2fv_32_sse2
 0002:000109A8       aT2fv_4_sse2
 0002:000109B4       aT2fv_5_sse2
 0002:000109C0       aT2fv_64_sse2
 0002:000109D0       aT2fv_8_sse2
 0002:000109DC       aT2sv_16_sse2
 0002:000109EC       aT2sv_32_sse2
 0002:000109FC       aT2sv_4_sse2
 0002:00010A08       aT2sv_8_sse2
 0002:00010A14       aT3bv_10_sse2
 0002:00010A24       aT3bv_16_sse2
 0002:00010A34       aT3bv_20_sse2
 0002:00010A44       aT3bv_25_sse2
 0002:00010A54       aT3bv_32_sse2
 0002:00010A64       aT3bv_4_sse2
 0002:00010A70       aT3bv_5_sse2
 0002:00010A7C       aT3bv_8_sse2
 0002:00010A88       aT3fv_10_sse2
 0002:00010A98       aT3fv_16_sse2
 0002:00010AA8       aT3fv_20_sse2
 0002:00010AB8       aT3fv_25_sse2
 0002:00010AC8       aT3fv_32_sse2
 0002:00010AD8       aT3fv_4_sse2
 0002:00010AE4       aT3fv_5_sse2
 0002:00010AF0       aT3fv_8_sse2
 0002:00010AFC       a____KernelAllo
 0002:00010B14       aP
 0002:00010B18       aFftwSDAssertio
 0002:00010B3C       a____KernelPlan
 0002:00010B54       aSlvndxSlotSlvn
 0002:00010B6C       aFftw3_3Fftwf_w
 0002:00010B98       aSDXXXXXXXMXMXM
 0002:00010BC8       asc_10149BC8
 0002:00010BCC       asc_10149BCC
 0002:00010BD0       aSDXXXXXXXMXM_1
 0002:00010BFC       aFlags_lL
 0002:00010C0C       aFlags_uU
 0002:00010C1C       aFlags_timelimi
 0002:00010C50       a0123456789abcd
 0002:00010C64       asc_10149C64
 0002:00010C68       aNull
 0002:00010C70       aUnsolvable_1
 0002:00010C7C       aUnsolvable
 0002:00010C8C       asc_10149C8C
 0002:00010C8E       unk_10149C8E
 0002:00010C90       asc_10149C90
 0002:00010C94       aSDDD
 0002:00010CA4       aRankMinfty
 0002:00010CB0       aRdftBufferedDV
 0002:00010CE0       aRdft2BufferedD
 0002:00010D10       aFftwf_hc2hc_ge
 0002:00010D30       aFftwf_rdft2_rd
 0002:00010D4C       aFftwf_rdft2_ra
 0002:00010D6C       aFftwf_rdft2_bu
 0002:00010D8C       aFftwf_rdft2__1
 0002:00010DA8       aFftwf_rdft2_no
 0002:00010DC4       aFftwf_rdft2_vr
 0002:00010DE4       aFftwf_dht_rade
 0002:00010E00       aFftwf_dht_r2hc
 0002:00010E18       aFftwf_rdft_dht
 0002:00010E30       aFftwf_dft_r2hc
 0002:00010E48       aFftwf_rdft_r_1
 0002:00010E68       aFftwf_rdft_gen
 0002:00010E84       aFftwf_rdft_buf
 0002:00010EA4       aFftwf_rdft_nop
 0002:00010EBC       aFftwf_rdft_v_1
 0002:00010EDC       aFftwf_rdft_vra
 0002:00010F04       aFftwf_rdft_ran
 0002:00010F20       aFftwf_rdft_ind
 0002:00010F40       aHc2cDirectbufD
 0002:00010F70       aHc2cDirectDDDV
 0002:00010F9C       aRdft2CtSDPP
 0002:00010FBC       aDftR2hcDP
 0002:00010FD0       aDhtR2hcDP
 0002:00010FE4       aDhtRaderDDOisO
 0002:00011008       aRdftSDirectbuf
 0002:00011030       aRdftSDirectR2c
 0002:00011050       aRdftSDirectR2r
 0002:00011070       aRdft2SDirectDV
 0002:0001108C       aR2hc
 0002:00011094       aHc2r
 0002:0001109C       aRdftGenericSD
 0002:000110B4       aHc2hcDirectbuf
 0002:000110E4       aHc2hcDirectDDV
 0002:0001110C       aHc2hcGenericSD
 0002:00011134       aRdftCtSDPP
 0002:00011150       aRdftIndirectAf
 0002:00011164       aRdftIndirectBe
 0002:0001117C       aRdftNop
 0002:00011188       aRdft2Nop
 0002:00011194       aRdft
 0002:0001119C       aRdftDDTT
 0002:000111B0       aD
 0002:000111B4       aRdft2
 0002:000111BC       aRdft2DDTT
 0002:000111D0       aRdft2Rank2DPP
 0002:000111F0       aRdftRank2DPP
 0002:00011210       aRdft2Hc2rRank0
 0002:0001122C       aRdft2R2hcRank0
 0002:00011244       aRdftRank0IpS_1
 0002:00011260       aRdftRank0IpSqT
 0002:00011278       aRdftRank0IpSq
 0002:0001128C       aRdftRank0Til_1
 0002:000112A0       aRdftRank0Tiled
 0002:000112B4       aRdftRank0Ite_1
 0002:000112C8       aRdftRank0IterC
 0002:000112DC       aRdftRank0Memcp
 0002:000112F4       aRdftRank0Mem_1
 0002:00011308       aSD
 0002:00011310       aV
 0002:00011314       aSDhtDP
 0002:00011328       aRdft2RdftSDVDD
 0002:00011350       aRdft2Vrank1XDD
 0002:00011370       aRdftVrank1XDDP
 0002:00011390       aRdftTransposeT
 0002:000113A8       aRdftTransposeC
 0002:000113BC       aRdftTransposeG
 0002:000113D0       aSDxDV
 0002:000113DC       asc_1014A3DC
 0002:000113F8       aFftwf_codel_62
 0002:00011414       asc_1014A414
 0002:00011430       asc_1014A430
 0002:0001144C       aFftwf_codele_4
 0002:00011468       aFftwf_codel_60
 0002:00011484       asc_1014A484
 0002:000114A0       asc_1014A4A0
 0002:000114BC       aFftwf_codel_43
 0002:000114D8       asc_1014A4D8
 0002:000114F4       asc_1014A4F4
 0002:00011510       aFftwf_codel_11
 0002:0001152C       asc_1014A52C
 0002:00011548       asc_1014A548
 0002:00011564       asc_1014A564
 0002:0001157C       aFftwf_codel_15
 0002:00011594       asc_1014A594
 0002:000115AC       asc_1014A5AC
 0002:000115C4       aFftwf_codele_5
 0002:000115DC       asc_1014A5DC
 0002:000115F4       aFftwf_codele_2
 0002:0001160C       asc_1014A60C
 0002:00011624       aFftwf_codel_25
 0002:0001163C       aFftwf_codele_1
 0002:00011654       asc_1014A654
 0002:0001166C       asc_1014A66C
 0002:00011684       asc_1014A684
 0002:0001169C       asc_1014A69C
 0002:000116B4       asc_1014A6B4
 0002:000116D0       asc_1014A6D0
 0002:000116EC       asc_1014A6EC
 0002:00011708       aFftwf_codel_72
 0002:00011724       aFftwf_codel_21
 0002:00011740       asc_1014A740
 0002:0001175C       asc_1014A75C
 0002:00011778       asc_1014A778
 0002:00011794       asc_1014A794
 0002:000117AC       asc_1014A7AC
 0002:000117C4       aFftwf_codel_95
 0002:000117DC       asc_1014A7DC
 0002:000117F4       aFftwf_codel_38
 0002:0001180C       asc_1014A80C
 0002:00011824       asc_1014A824
 0002:0001183C       asc_1014A83C
 0002:00011854       aFftwf_codel_77
 0002:0001186C       asc_1014A86C
 0002:00011884       asc_1014A884
 0002:00011898       asc_1014A898
 0002:000118B0       aFftwf_codel_40
 0002:000118C8       asc_1014A8C8
 0002:000118DC       asc_1014A8DC
 0002:000118F0       asc_1014A8F0
 0002:00011904       asc_1014A904
 0002:00011918       asc_1014A918
 0002:0001192C       asc_1014A92C
 0002:00011940       asc_1014A940
 0002:00011954       asc_1014A954
 0002:00011968       asc_1014A968
 0002:0001197C       asc_1014A97C
 0002:00011990       asc_1014A990
 0002:000119A4       asc_1014A9A4
 0002:000119B8       asc_1014A9B8
 0002:000119CC       asc_1014A9CC
 0002:000119E0       asc_1014A9E0
 0002:000119F4       asc_1014A9F4
 0002:00011A08       asc_1014AA08
 0002:00011A1C       asc_1014AA1C
 0002:00011A30       asc_1014AA30
 0002:00011A48       asc_1014AA48
 0002:00011A60       asc_1014AA60
 0002:00011A78       asc_1014AA78
 0002:00011A90       asc_1014AA90
 0002:00011AA8       asc_1014AAA8
 0002:00011AC0       asc_1014AAC0
 0002:00011AD8       asc_1014AAD8
 0002:00011AF0       asc_1014AAF0
 0002:00011B08       aFftwf_codel_49
 0002:00011B20       asc_1014AB20
 0002:00011B38       asc_1014AB38
 0002:00011B50       asc_1014AB50
 0002:00011B68       asc_1014AB68
 0002:00011B80       aFftwf_codel_76
 0002:00011B98       asc_1014AB98
 0002:00011BB0       aFftwf_codel_85
 0002:00011BC8       asc_1014ABC8
 0002:00011BE0       asc_1014ABE0
 0002:00011BF8       asc_1014ABF8
 0002:00011C10       aHb2_16
 0002:00011C18       aHb2_20
 0002:00011C20       aHb2_25
 0002:00011C28       aHb2_32
 0002:00011C30       aHb2_4
 0002:00011C38       aHb2_5
 0002:00011C40       aHb2_8
 0002:00011C48       aHb_10
 0002:00011C50       aHb_12
 0002:00011C58       aHb_15
 0002:00011C60       aHb_16
 0002:00011C68       aHb_2
 0002:00011C70       aHb_20
 0002:00011C78       aHb_25
 0002:00011C80       aHb_3
 0002:00011C88       aHb_32
 0002:00011C90       aHb_4
 0002:00011C98       aHb_5
 0002:00011CA0       aHb_6
 0002:00011CA8       aHb_64
 0002:00011CB0       aHb_7
 0002:00011CB8       aHb_8
 0002:00011CC0       aHb_9
 0002:00011CC8       aHc2cb2_16
 0002:00011CD4       aHc2cb2_20
 0002:00011CE0       aHc2cb2_32
 0002:00011CEC       aHc2cb2_4
 0002:00011CF8       aHc2cb2_8
 0002:00011D04       aHc2cbdft2_16
 0002:00011D14       aHc2cbdft2_20
 0002:00011D24       aHc2cbdft2_32
 0002:00011D34       aHc2cbdft2_4
 0002:00011D40       aHc2cbdft2_8
 0002:00011D4C       aHc2cbdft_10
 0002:00011D58       aHc2cbdft_12
 0002:00011D64       aHc2cbdft_16
 0002:00011D70       aHc2cbdft_2
 0002:00011D7C       aHc2cbdft_20
 0002:00011D88       aHc2cbdft_32
 0002:00011D94       aHc2cbdft_4
 0002:00011DA0       aHc2cbdft_6
 0002:00011DAC       aHc2cbdft_8
 0002:00011DB8       aHc2cb_10
 0002:00011DC4       aHc2cb_12
 0002:00011DD0       aHc2cb_16
 0002:00011DDC       aHc2cb_2
 0002:00011DE4       aHc2cb_20
 0002:00011DF0       aHc2cb_32
 0002:00011DFC       aHc2cb_4
 0002:00011E04       aHc2cb_6
 0002:00011E0C       aHc2cb_8
 0002:00011E14       aR2cbiii_10
 0002:00011E20       aR2cbiii_12
 0002:00011E2C       aR2cbiii_15
 0002:00011E38       aR2cbiii_16
 0002:00011E44       aR2cbiii_2
 0002:00011E50       aR2cbiii_20
 0002:00011E5C       aR2cbiii_25
 0002:00011E68       aR2cbiii_3
 0002:00011E74       aR2cbiii_32
 0002:00011E80       aR2cbiii_4
 0002:00011E8C       aR2cbiii_5
 0002:00011E98       aR2cbiii_6
 0002:00011EA4       aR2cbiii_64
 0002:00011EB0       aR2cbiii_7
 0002:00011EBC       aR2cbiii_8
 0002:00011EC8       aR2cbiii_9
 0002:00011ED4       aR2cb_10
 0002:00011EDC       aR2cb_11
 0002:00011EE4       aR2cb_12
 0002:00011EEC       aR2cb_128
 0002:00011EF8       aR2cb_13
 0002:00011F00       aR2cb_14
 0002:00011F08       aR2cb_15
 0002:00011F10       aR2cb_16
 0002:00011F18       aR2cb_2
 0002:00011F20       aR2cb_20
 0002:00011F28       aR2cb_25
 0002:00011F30       aR2cb_3
 0002:00011F38       aR2cb_32
 0002:00011F40       aR2cb_4
 0002:00011F48       aR2cb_5
 0002:00011F50       aR2cb_6
 0002:00011F58       aR2cb_64
 0002:00011F60       aR2cb_7
 0002:00011F68       aR2cb_8
 0002:00011F70       aR2cb_9
 0002:00011F78       aFftwf_codele_3
 0002:00011F94       aFftwf_codel_54
 0002:00011FB0       asc_1014AFB0
 0002:00011FCC       asc_1014AFCC
 0002:00011FE8       aFftwf_codel_81
 0002:00012004       aFftwf_codel_78
 0002:00012020       asc_1014B020
 0002:0001203C       asc_1014B03C
 0002:00012058       asc_1014B058
 0002:00012074       asc_1014B074
 0002:00012090       asc_1014B090
 0002:000120AC       asc_1014B0AC
 0002:000120C8       aFftwf_codel_31
 0002:000120E4       aFftwf_codel_89
 0002:00012100       asc_1014B100
 0002:00012118       asc_1014B118
 0002:00012130       aFftwf_codel_92
 0002:00012148       asc_1014B148
 0002:00012160       asc_1014B160
 0002:00012178       asc_1014B178
 0002:00012190       asc_1014B190
 0002:000121A8       asc_1014B1A8
 0002:000121C0       asc_1014B1C0
 0002:000121D8       asc_1014B1D8
 0002:000121F0       asc_1014B1F0
 0002:00012208       asc_1014B208
 0002:00012220       asc_1014B220
 0002:00012238       asc_1014B238
 0002:00012250       asc_1014B250
 0002:00012268       asc_1014B268
 0002:00012280       asc_1014B280
 0002:00012298       asc_1014B298
 0002:000122B0       aFftwf_codel_94
 0002:000122C8       asc_1014B2C8
 0002:000122E0       asc_1014B2E0
 0002:000122F8       asc_1014B2F8
 0002:00012310       asc_1014B310
 0002:00012328       asc_1014B328
 0002:00012340       asc_1014B340
 0002:00012358       asc_1014B358
 0002:00012370       asc_1014B370
 0002:00012388       asc_1014B388
 0002:000123A0       aFftwf_codel_80
 0002:000123B8       aFftwf_codel_91
 0002:000123D0       asc_1014B3D0
 0002:000123E8       asc_1014B3E8
 0002:00012400       asc_1014B400
 0002:00012414       asc_1014B414
 0002:0001242C       asc_1014B42C
 0002:00012444       asc_1014B444
 0002:00012458       aFftwf_codel_97
 0002:0001246C       aFftwf_codele_7
 0002:00012480       asc_1014B480
 0002:00012494       asc_1014B494
 0002:000124A8       aFftwf_codel_27
 0002:000124BC       asc_1014B4BC
 0002:000124D0       aFftwf_codele_0
 0002:000124E4       asc_1014B4E4
 0002:000124F8       asc_1014B4F8
 0002:0001250C       asc_1014B50C
 0002:00012520       aFftwf_codele_9
 0002:00012534       asc_1014B534
 0002:00012548       asc_1014B548
 0002:0001255C       asc_1014B55C
 0002:00012570       asc_1014B570
 0002:00012584       aFftwf_codel_24
 0002:00012598       asc_1014B598
 0002:000125AC       asc_1014B5AC
 0002:000125C4       asc_1014B5C4
 0002:000125DC       asc_1014B5DC
 0002:000125F4       asc_1014B5F4
 0002:0001260C       aFftwf_codel_59
 0002:00012624       aFftwf_codel_74
 0002:0001263C       aFftwf_codel_93
 0002:00012654       asc_1014B654
 0002:0001266C       asc_1014B66C
 0002:00012684       aFftwf_codel_18
 0002:0001269C       asc_1014B69C
 0002:000126B4       aFftwf_codel_46
 0002:000126CC       asc_1014B6CC
 0002:000126E4       aFftwf_codel_22
 0002:000126FC       asc_1014B6FC
 0002:00012714       asc_1014B714
 0002:0001272C       aFftwf_codel_20
 0002:00012744       asc_1014B744
 0002:0001275C       aFftwf_codel_83
 0002:00012774       asc_1014B774
 0002:0001278C       aHc2cf2_16
 0002:00012798       aHc2cf2_20
 0002:000127A4       aHc2cf2_32
 0002:000127B0       aHc2cf2_4
 0002:000127BC       aHc2cf2_8
 0002:000127C8       aHc2cfdft2_16
 0002:000127D8       aHc2cfdft2_20
 0002:000127E8       aHc2cfdft2_32
 0002:000127F8       aHc2cfdft2_4
 0002:00012804       aHc2cfdft2_8
 0002:00012810       aHc2cfdft_10
 0002:0001281C       aHc2cfdft_12
 0002:00012828       aHc2cfdft_16
 0002:00012834       aHc2cfdft_2
 0002:00012840       aHc2cfdft_20
 0002:0001284C       aHc2cfdft_32
 0002:00012858       aHc2cfdft_4
 0002:00012864       aHc2cfdft_6
 0002:00012870       aHc2cfdft_8
 0002:0001287C       aHc2cf_10
 0002:00012888       aHc2cf_12
 0002:00012894       aHc2cf_16
 0002:000128A0       aHc2cf_2
 0002:000128A8       aHc2cf_20
 0002:000128B4       aHc2cf_32
 0002:000128C0       aHc2cf_4
 0002:000128C8       aHc2cf_6
 0002:000128D0       aHc2cf_8
 0002:000128D8       aHf2_16
 0002:000128E0       aHf2_20
 0002:000128E8       aHf2_25
 0002:000128F0       aHf2_32
 0002:000128F8       aHf2_4
 0002:00012900       aHf2_5
 0002:00012908       aHf2_8
 0002:00012910       aHf_10
 0002:00012918       aHf_12
 0002:00012920       aHf_15
 0002:00012928       aHf_16
 0002:00012930       aHf_2
 0002:00012938       aHf_20
 0002:00012940       aHf_25
 0002:00012948       aHf_3
 0002:00012950       aHf_32
 0002:00012958       aHf_4
 0002:00012960       aHf_5
 0002:00012968       aHf_6
 0002:00012970       aHf_64
 0002:00012978       aHf_7
 0002:00012980       aHf_8
 0002:00012988       aHf_9
 0002:00012990       aR2cfii_10
 0002:0001299C       aR2cfii_12
 0002:000129A8       aR2cfii_15
 0002:000129B4       aR2cfii_16
 0002:000129C0       aR2cfii_2
 0002:000129CC       aR2cfii_20
 0002:000129D8       aR2cfii_25
 0002:000129E4       aR2cfii_3
 0002:000129F0       aR2cfii_32
 0002:000129FC       aR2cfii_4
 0002:00012A08       aR2cfii_5
 0002:00012A14       aR2cfii_6
 0002:00012A20       aR2cfii_64
 0002:00012A2C       aR2cfii_7
 0002:00012A38       aR2cfii_8
 0002:00012A44       aR2cfii_9
 0002:00012A50       aR2cf_10
 0002:00012A58       aR2cf_11
 0002:00012A60       aR2cf_12
 0002:00012A68       aR2cf_128
 0002:00012A74       aR2cf_13
 0002:00012A7C       aR2cf_14
 0002:00012A84       aR2cf_15
 0002:00012A8C       aR2cf_16
 0002:00012A94       aR2cf_2
 0002:00012A9C       aR2cf_20
 0002:00012AA4       aR2cf_25
 0002:00012AAC       aR2cf_3
 0002:00012AB4       aR2cf_32
 0002:00012ABC       aR2cf_4
 0002:00012AC4       aR2cf_5
 0002:00012ACC       aR2cf_6
 0002:00012AD4       aR2cf_64
 0002:00012ADC       aR2cf_7
 0002:00012AE4       aR2cf_8
 0002:00012AEC       aR2cf_9
 0002:00012AF4       aFftwf_codel_82
 0002:00012B08       asc_1014BB08
 0002:00012B1C       aE01_8
 0002:00012B24       aE10_8
 0002:00012B2C       asc_1014BB2C
 0002:00012B4C       asc_1014BB4C
 0002:00012B6C       asc_1014BB6C
 0002:00012B8C       asc_1014BB8C
 0002:00012BAC       asc_1014BBAC
 0002:00012BCC       asc_1014BBCC
 0002:00012BEC       asc_1014BBEC
 0002:00012C0C       asc_1014BC0C
 0002:00012C2C       asc_1014BC2C
 0002:00012C4C       asc_1014BC4C
 0002:00012C6C       asc_1014BC6C
 0002:00012C8C       asc_1014BC8C
 0002:00012CAC       asc_1014BCAC
 0002:00012CCC       asc_1014BCCC
 0002:00012CEC       asc_1014BCEC
 0002:00012D0C       asc_1014BD0C
 0002:00012D2C       asc_1014BD2C
 0002:00012D4C       asc_1014BD4C
 0002:00012D6C       aHc2cbdftv_10_s
 0002:00012D80       aHc2cbdftv_12_s
 0002:00012D94       aHc2cbdftv_16_s
 0002:00012DA8       aHc2cbdftv_2_ss
 0002:00012DBC       aHc2cbdftv_20_s
 0002:00012DD0       aHc2cbdftv_32_s
 0002:00012DE4       aHc2cbdftv_4_ss
 0002:00012DF8       aHc2cbdftv_6_ss
 0002:00012E0C       aHc2cbdftv_8_ss
 0002:00012E20       aHc2cfdftv_10_s
 0002:00012E34       aHc2cfdftv_12_s
 0002:00012E48       aHc2cfdftv_16_s
 0002:00012E5C       aHc2cfdftv_2_ss
 0002:00012E70       aHc2cfdftv_20_s
 0002:00012E84       aHc2cfdftv_32_s
 0002:00012E98       aHc2cfdftv_4_ss
 0002:00012EAC       aHc2cfdftv_6_ss
 0002:00012EC0       aHc2cfdftv_8_ss
 0002:00012ED4       aFftwf_reodft11
 0002:00012EF8       aFftwf_reodft_1
 0002:00012F20       aFftwf_reodft01
 0002:00012F40       aFftwf_reodft00
 0002:00012F64       aFftwf_rodft00e
 0002:00012F88       aFftwf_redft00e
 0002:00012FAC       aRedft00eR2hcPa
 0002:00012FD4       aRedft00eR2hcDV
 0002:00012FF0       aRedft00eSplitr
 0002:00013018       aRodft00eSplitr
 0002:00013040       aSeR2hcDVP
 0002:00013058       aSeR2hcOddDVP
 0002:00013074       aSeRadix2R2hcDV
 0002:00013094       aRodft00eR2hcPa
 0002:000130BC       aRodft00eR2hcDV
 0002:000130D8       a____SimdSuppor
 0002:00013100       aAlignedXSse2_p
 0002:00013118       aFftwf_rdft2_th
 0002:0001313C       aFftwf_rdft_thr
 0002:00013160       aFftwf_dft_thr_
 0002:00013184       aDftThrCtSXDD
 0002:0001319C       aP_0
 0002:000131A4       aDftThrVrank1XD
 0002:000131C0       aRdftThrCtSXDD
 0002:000131D8       aRdftThrVrank1X
 0002:000131F4       aRdft2ThrVrank1
 0002:00013210       __real@3fe87de2a0000000
 0002:00013218       __real@3ffd906bc0000000
 0002:00013220       __real@3fd8f8b840000000
 0002:00013228       __real@3fff6297c0000000
 0002:00013230       __real@3ff6a09e60000000
 0002:00013238       __real@3ff1c73b40000000
 0002:00013240       __real@3ffa9b6620000000
 0002:00013248       __real@3fe6a09e60000000
 0002:00013250       __real@3fee11f640000000
 0002:00013258       __real@3fd2f4e900000000
 0002:00013260       __real@3fd5e3a880000000
 0002:00013268       __real@3fea0aa160000000
 0002:00013270       __real@3fef838b80000000
 0002:00013278       __real@3fc33fc620000000
 0002:00013280       __real@3fe491b760000000
 0002:00013288       __real@3fe53aafe0000000
 0002:00013290       __real@3fe1d03e80000000
 0002:00013298       __real@3fe8836fa0000000
 0002:000132A0       __real@3fc63a1a80000000
 0002:000132A8       __real@3feb4ab300000000
 0002:000132B0       __real@3febb67ae0000000
 0002:000132B8       __real@3fe0000000000000
 0002:000132C0       __real@3fe3f3a0e0000000
 0002:000132C8       __real@3fcc7b90e0000000
 0002:000132D0       __real@3fecd4bca0000000
 0002:000132D8       __real@3fdbc4c040000000
 0002:000132E0       __real@3fe904c380000000
 0002:000132E8       __real@3fef329c00000000
 0002:000132F0       __real@3fe44cf320000000
 0002:000132F8       __real@3fe8bc8060000000
 0002:00013300       __real@3fb917a6c0000000
 0002:00013308       __real@3fefd88da0000000
 0002:00013310       __real@3fee9f4160000000
 0002:00013318       __real@3fd2940620000000
 0002:00013320       __real@3fde2b5d40000000
 0002:00013328       __real@3fec38b300000000
 0002:00013330       __real@3fc8f8b840000000
 0002:00013338       __real@3fef6297c0000000
 0002:00013340       __real@3fea9b6620000000
 0002:00013348       __real@3fe1c73b40000000
 0002:00013350       __real@3fd87de2a0000000
 0002:00013358       __real@3fed906bc0000000
 0002:00013360       __real@3fd0000000000000
 0002:00013368       __real@3fe1e377a0000000
 0002:00013370       __real@3fe2cf2300000000
 0002:00013378       __real@3fee6f0e20000000
 0002:00013380       __real@3fc0130a20000000
 0002:00013388       __real@3fefefd5c0000000
 0002:00013390       __real@3fffefd5c0000000
 0002:00013398       __real@3fb0130a20000000
 0002:000133A0       __real@3fd3c6ef40000000
 0002:000133A8       __real@3fe9e377a0000000
 0002:000133B0       __real@3ff5e7cf60000000
 0002:000133B8       __real@3fe753b600000000
 0002:000133C0       __real@3feed50d60000000
 0002:000133C8       __real@3fec0ab440000000
 0002:000133D0       __real@3fdfd51200000000
 0002:000133D8       __real@3feefea220000000
 0002:000133E0       __real@3ff753b600000000
 0002:000133E8       __real@3fe5e7cf60000000
 0002:000133F0       __real@3ffc0ab440000000
 0002:000133F8       __real@3fded50d60000000
 0002:00013400       __real@3ffefea220000000
 0002:00013408       __real@3fcfd51200000000
 0002:00013410       __real@3fefbf6760000000
 0002:00013418       __real@3fd00aeb60000000
 0002:00013420       __real@3fdb3ff7c0000000
 0002:00013428       __real@3ffcf457e0000000
 0002:00013430       __real@3ff465c700000000
 0002:00013438       __real@3fe8a80b60000000
 0002:00013440       __real@3feb04bc00000000
 0002:00013448       __real@3ff1257e40000000
 0002:00013450       __real@3fffbf6760000000
 0002:00013458       __real@3fc00aeb60000000
 0002:00013460       __real@3feb3ff7c0000000
 0002:00013468       __real@3fecf457e0000000
 0002:00013470       __real@3ff8a80b60000000
 0002:00013478       __real@3fe465c700000000
 0002:00013480       __real@3ffb04bc00000000
 0002:00013488       __real@3fe1257e40000000
 0002:00013490       __real@3fde6f0e20000000
 0002:00013498       __real@3fd2cf2300000000
 0002:000134A0       __real@3fdefbdec0000000
 0002:000134A8       __real@3fcbb67ae0000000
 0002:000134B0       __real@3fea5b4060000000
 0002:000134B8       __real@3fe04a07e0000000
 0002:000134C0       __real@3fb5555560000000
 0002:000134C8       __real@3fd01cf9c0000000
 0002:000134D0       __real@3fb36e60c0000000
 0002:000134D8       __real@3fe01cf9c0000000
 0002:000134E0       __real@3fbd259140000000
 0002:000134E8       __real@3fd8cb01e0000000
 0002:000134F0       __real@3fd1059740000000
 0002:000134F8       __real@3fd33ac780000000
 0002:00013500       __real@3fc1059740000000
 0002:00013508       __real@3fd08756a0000000
 0002:00013510       __real@3ffbb67ae0000000
 0002:00013518       __real@3fd3371c20000000
 0002:00013520       __real@3f87c145a0000000
 0002:00013528       __real@3fc4150460000000
 0002:00013530       __real@3fd0665ca0000000
 0002:00013538       __real@3fc64a2c80000000
 0002:00013540       __real@3fe2678d80000000
 0002:00013548       __real@4000000000000000
 0002:00013550       __real@3fe30ff800000000
 0002:00013558       __real@3fe9b3e040000000
 0002:00013560       __real@3fc2c81060000000
 0002:00013568       __real@3fefa75580000000
 0002:00013570       __real@3fe57d6940000000
 0002:00013578       __real@3fe7b5df20000000
 0002:00013580       __real@3fa91f6600000000
 0002:00013588       __real@3feff621e0000000
 0002:00013590       __real@3fcf19f980000000
 0002:00013598       __real@3fef0a7f00000000
 0002:000135A0       __real@3fe07387a0000000
 0002:000135A8       __real@3feb728340000000
 0002:000135B0       __real@3fd58f9a80000000
 0002:000135B8       __real@3fee212100000000
 0002:000135C0       __real@3fdb5d1000000000
 0002:000135C8       __real@3feced7b00000000
 0002:000135D0       __real@3fc2375f60000000
 0002:000135D8       __real@3fefac9e00000000
 0002:000135E0       __real@3fe82f19c0000000
 0002:000135E8       __real@3fe14cee00000000
 0002:000135F0       __real@3fed1bb480000000
 0002:000135F8       __real@3fd207e800000000
 0002:00013600       __real@3fe4f49e80000000
 0002:00013608       __real@3feaeb8c80000000
 0002:00013610       __real@3feeb42aa0000000
 0002:00013618       __real@3fda9628e0000000
 0002:00013620       __real@3fe24e53c0000000
 0002:00013628       __real@3fcbf81200000000
 0002:00013630       __real@3fc6a09e60000000
 0002:00013638       __real@3fd94c5840000000
 0002:00013640       __real@3fda99a1c0000000
 0002:00013648       __real@3fe5851ba0000000
 0002:00013650       __mask@@NegFloat@
 0002:00013660       __real@3fd6a09e60000000
 0002:00013668       __real@3fe3988e20000000
 0002:00013670       __real@3fdbb67ae0000000
 0002:00013678       __real@3fda9b6620000000
 0002:00013680       __real@3fd1c73b40000000
 0002:00013688       __real@3fb8f8b840000000
 0002:00013690       __real@3fdf6297c0000000
 0002:00013698       __real@3fdd906bc0000000
 0002:000136A0       __real@3fc87de2a0000000
 0002:000136A8       __real@3fc0000000000000
 0002:000136B0       __real@3fd1e377a0000000
 0002:000136B8       __real@3fd33fc620000000
 0002:000136C0       __real@3ffb4ab300000000
 0002:000136C8       __real@3ff53aafe0000000
 0002:000136D0       __real@3ff1d03e80000000
 0002:000136D8       __real@3ff3f3a0e0000000
 0002:000136E0       __real@3fdc7b90e0000000
 0002:000136E8       __real@3ffcd4bca0000000
 0002:000136F0       __real@3febc4c040000000
 0002:000136F8       __real@3fff329c00000000
 0002:00013700       __real@3ff904c380000000
 0002:00013708       __real@3ff8bc8060000000
 0002:00013710       __real@3ff44cf320000000
 0002:00013718       __real@3fc917a6c0000000
 0002:00013720       __real@3fffd88da0000000
 0002:00013728       __real@3fee2b5d40000000
 0002:00013730       __real@3ffc38b300000000
 0002:00013738       __real@3fe2940620000000
 0002:00013740       __real@3ffe9f4160000000
 0002:00013748       __real@3ff1e377a0000000
 0002:00013750       __real@3ffe6f0e20000000
 0002:00013758       __real@3ff2cf2300000000
 0002:00013760       __real@3ff01cf9c0000000
 0002:00013768       __real@3fcd259140000000
 0002:00013770       __real@3fe1059740000000
 0002:00013778       __real@3fe8cb01e0000000
 0002:00013780       __real@3fe08756a0000000
 0002:00013788       __real@3fc36e60c0000000
 0002:00013790       __real@3fc5555560000000
 0002:00013798       __real@3fe33ac780000000
 0002:000137A0       __real@3fd64a2c80000000
 0002:000137A8       __real@3ff2678d80000000
 0002:000137B0       __real@3ff07387a0000000
 0002:000137B8       __real@3ffb728340000000
 0002:000137C0       __real@3ff9b3e040000000
 0002:000137C8       __real@3ff30ff800000000
 0002:000137D0       __real@3fff0a7f00000000
 0002:000137D8       __real@3fdf19f980000000
 0002:000137E0       __real@3fd2c81060000000
 0002:000137E8       __real@3fffa75580000000
 0002:000137F0       __real@3feb5d1000000000
 0002:000137F8       __real@3ffced7b00000000
 0002:00013800       __real@3ff7b5df20000000
 0002:00013808       __real@3ff57d6940000000
 0002:00013810       __real@3ffe212100000000
 0002:00013818       __real@3fe58f9a80000000
 0002:00013820       __real@3fb91f6600000000
 0002:00013828       __real@3ffff621e0000000
 0002:00013830       __real@3ffeb42aa0000000
 0002:00013838       __real@3ff4f49e80000000
 0002:00013840       __real@3ffaeb8c80000000
 0002:00013848       __real@3fd2375f60000000
 0002:00013850       __real@3fea9628e0000000
 0002:00013858       __real@3fe207e800000000
 0002:00013860       __real@3ff14cee00000000
 0002:00013868       __real@3ffd1bb480000000
 0002:00013870       __real@3fffac9e00000000
 0002:00013878       __real@3ff82f19c0000000
 0002:00013880       __real@3feefbdec0000000
 0002:00013888       __real@3ff04a07e0000000
 0002:00013890       __real@3ffa5b4060000000
 0002:00013898       __real@bff0000000000000
 0002:000138A0       __real@408f400000000000
 0002:000138A8       __real@3ff0cccccccccccd
 0002:000138B0       __real@3ddb7cdfd9d7bdbb
 0002:000138B8       __real@417e133800000000
 0002:000138C0       __real@4010000000000000
 0002:000138C8       __real@bf800000
 0002:000138D0       __real@40b3880000000000
 0002:000138D8       __real@3ff0000000000000
 0002:000138E0       __real@4020000000000000
 0002:000138E8       __real@400921f9f01b866e
 0002:000138F0       __real@4004000000000000
 0002:000138F8       __real@4070000000000000
 0002:00013900       __real@4026000000000000
 0002:00013908       __real@401c000000000000
 0002:00013910       __real@4014000000000000
 0002:00013918       __load_config_used
 0002:000139C0       ___safe_se_handler_table
 0002:000139C4       ___rtc_iaa
 0002:000139C8       ___rtc_izz
 0002:000139CC       ___rtc_taa
 0002:000139D0       ___rtc_tzz
 0002:000139D8       stru_1014C9D8
 0002:00013A00       stru_1014CA00
 0002:00013A20       unk_1014CA20
 0002:00013A3C       __IMPORT_DESCRIPTOR_MSVCR100
 0002:00013A50       __IMPORT_DESCRIPTOR_KERNEL32
 0002:00013A64       __IMPORT_DESCRIPTOR_VCOMP100
 0002:00013A78       __NULL_IMPORT_DESCRIPTOR
 0002:00013A8C       off_1014CA8C
 0002:00013AD4       off_1014CAD4
 0002:00013B64       off_1014CB64
 0002:00013B74       word_1014CB74
 0002:00013B7C       word_1014CB7C
 0002:00013B86       word_1014CB86
 0002:00013B90       word_1014CB90
 0002:00013B9A       word_1014CB9A
 0002:00013BA2       word_1014CBA2
 0002:00013BAC       word_1014CBAC
 0002:00013BBA       word_1014CBBA
 0002:00013BC2       word_1014CBC2
 0002:00013BCC       word_1014CBCC
 0002:00013BD6       word_1014CBD6
 0002:00013BDE       word_1014CBDE
 0002:00013BE6       word_1014CBE6
 0002:00013BEE       word_1014CBEE
 0002:00013BF8       word_1014CBF8
 0002:00013C02       word_1014CC02
 0002:00013C0C       aMsvcr100_dll
 0002:00013C1A       word_1014CC1A
 0002:00013C28       word_1014CC28
 0002:00013C38       word_1014CC38
 0002:00013C44       word_1014CC44
 0002:00013C52       word_1014CC52
 0002:00013C60       word_1014CC60
 0002:00013C72       word_1014CC72
 0002:00013C88       word_1014CC88
 0002:00013CAC       word_1014CCAC
 0002:00013CB6       word_1014CCB6
 0002:00013CC4       word_1014CCC4
 0002:00013CCC       word_1014CCCC
 0002:00013CD6       word_1014CCD6
 0002:00013CF0       word_1014CCF0
 0002:00013D00       word_1014CD00
 0002:00013D10       word_1014CD10
 0002:00013D26       word_1014CD26
 0002:00013D2E       word_1014CD2E
 0002:00013D4C       word_1014CD4C
 0002:00013D60       word_1014CD60
 0002:00013D74       word_1014CD74
 0002:00013D90       word_1014CD90
 0002:00013DAE       word_1014CDAE
 0002:00013DC2       word_1014CDC2
 0002:00013DDE       word_1014CDDE
 0002:00013DF8       word_1014CDF8
 0002:00013E08       word_1014CE08
 0002:00013E1E       word_1014CE1E
 0002:00013E34       word_1014CE34
 0002:00013E4E       aKernel32_dll
 0002:00013E5C       word_1014CE5C
 0002:00013E66       word_1014CE66
 0002:00013E70       word_1014CE70
 0002:00013E7A       word_1014CE7A
 0002:00013E84       word_1014CE84
 0002:00013E90       word_1014CE90
 0002:00013E9A       word_1014CE9A
 0002:00013EB2       word_1014CEB2
 0002:00013ED2       word_1014CED2
 0002:00013EE0       aVcomp100_dll
 0002:00013EEE       word_1014CEEE
 0002:00013F38       off_1014CF38
 0002:0001406C       off_1014D06C
 0002:000141A0       word_1014D1A0
 0002:0001423A       aLibfftwf3_3_dl
 0002:0001424B       aFftwf_alloc_co
 0002:0001425F       aFftwf_alloc_re
 0002:00014270       aFftwf_assertio
 0002:00014287       aFftwf_cc
 0002:00014290       aFftwf_cleanup
 0002:0001429E       aFftwf_cleanup_
 0002:000142B4       aFftwf_codelet_
 0002:000142C8       aFftwf_cost
 0002:000142D3       aFftwf_destroy_
 0002:000142E6       aFftwf_estimate
 0002:000142FA       aFftwf_execute
 0002:00014308       aFftwf_execute_
 0002:0001431A       aFftwf_execut_0
 0002:00014330       aFftwf_execut_1
 0002:00014346       aFftwf_execut_2
 0002:00014358       aFftwf_execut_3
 0002:00014370       aFftwf_execut_4
 0002:0001438C       aFftwf_execut_5
 0002:000143A8       aFftwf_export_w
 0002:000143BC       aFftwf_export_0
 0002:000143D8       aFftwf_export_1
 0002:000143F8       aFftwf_export_2
 0002:00014416       aFftwf_flops
 0002:00014422       aFftwf_forget_w
 0002:00014436       aFftwf_fprint_p
 0002:00014448       aFftwf_free
 0002:00014453       aFftwf_ifree
 0002:0001445F       aFftwf_import_s
 0002:0001447A       aFftwf_import_w
 0002:0001448E       aFftwf_import_0
 0002:000144AC       aFftwf_import_1
 0002:000144CE       aFftwf_import_2
 0002:000144EE       aFftwf_init_thr
 0002:00014501       aFftwf_malloc
 0002:0001450E       aFftwf_malloc_p
 0002:00014521       aFftwf_mkprinte
 0002:00014536       aFftwf_plan_awa
 0002:00014547       aFftwf_plan_dft
 0002:00014556       aFftwf_plan_d_0
 0002:00014568       aFftwf_plan_d_1
 0002:0001457A       aFftwf_plan_d_2
 0002:0001458C       aFftwf_plan_d_3
 0002:0001459F       aFftwf_plan_d_4
 0002:000145B5       aFftwf_plan_d_5
 0002:000145CB       aFftwf_plan_d_6
 0002:000145E1       aFftwf_plan_d_7
 0002:000145F4       aFftwf_plan_d_8
 0002:0001460A       aFftwf_plan_d_9
 0002:00014620       aFftwf_plan__10
 0002:00014636       aFftwf_plan_gur
 0002:0001464C       aFftwf_plan_g_0
 0002:00014666       aFftwf_plan_g_1
 0002:00014680       aFftwf_plan_g_2
 0002:00014696       aFftwf_plan_g_3
 0002:000146B2       aFftwf_plan_g_4
 0002:000146D2       aFftwf_plan_g_5
 0002:000146F2       aFftwf_plan_g_6
 0002:00014706       aFftwf_plan_g_7
 0002:0001471E       aFftwf_plan_g_8
 0002:00014736       aFftwf_plan_g_9
 0002:0001474A       aFftwf_plan__11
 0002:00014764       aFftwf_plan__12
 0002:00014782       aFftwf_plan__13
 0002:000147A0       aFftwf_plan_man
 0002:000147B4       aFftwf_plan_m_0
 0002:000147CC       aFftwf_plan_m_1
 0002:000147E4       aFftwf_plan_m_2
 0002:000147F8       aFftwf_plan_r2r
 0002:00014807       aFftwf_plan_r_0
 0002:00014819       aFftwf_plan_r_1
 0002:0001482B       aFftwf_plan_r_2
 0002:0001483D       aFftwf_plan_wit
 0002:00014856       aFftwf_print_pl
 0002:00014867       aFftwf_printer_
 0002:0001487D       aFftwf_set_time
 0002:00014891       aFftwf_the_plan
 0002:000148A3       aFftwf_version
 0003:00000000       ___security_cookie
 0003:00000004       ___security_cookie_complement
 0003:00000008       ___native_dllmain_reason
 0003:0000000C       ___native_vcclrit_reason
 0003:00000010       tab
 0003:0000007C       the_unsolvable_problem
 0003:00000080       digits
 0003:00000090       __You_must_link_with_exactly_one_OpenMP_library
 0003:00000094       __You_must_link_with_Microsoft_OpenMP_library
 0003:00000098       __proc_attached
 0003:000000A0       GS_ExceptionRecord
 0003:000000F0       DebuggerWasPresent
 0003:000000F8       GS_ContextRecord
 0003:000003C4       __type_info_node __type_info_root_node
 0003:000003D0       twlist
 0003:00000584       res
 0003:00000588       jb
 0003:000005C8       plnr
 0003:000005CC       _fftwf_mksolver_ct_hook
 0003:000005D0       omegas
 0003:000005D4       omegas_1
 0003:000005D8       _fftwf_mksolver_hc2hc_hook
 0003:000005DC       init
 0003:000005E0       threads_inited
 0003:000005E4       ___sse2_available
 0003:000005E8       ___native_startup_state
 0003:000005EC       ___native_startup_lock
 0003:000005F0       ___onexitend
 0003:000005F4       ___onexitbegin
 0003:000005F8       ___dyn_tls_init_callback

Program entry point at 0001:001374F4
